
I2C_BME280.elf:     file format elf32-avr

Sections:
Idx Name          Size      VMA       LMA       File off  Algn
  0 .data         0000000c  00800100  000029f0  00002a84  2**0
                  CONTENTS, ALLOC, LOAD, DATA
  1 .text         000029f0  00000000  00000000  00000094  2**1
                  CONTENTS, ALLOC, LOAD, READONLY, CODE
  2 .bss          00000028  0080010c  0080010c  00002a90  2**0
                  ALLOC
  3 .comment      00000030  00000000  00000000  00002a90  2**0
                  CONTENTS, READONLY
  4 .note.gnu.avr.deviceinfo 00000040  00000000  00000000  00002ac0  2**2
                  CONTENTS, READONLY
  5 .debug_aranges 000002b8  00000000  00000000  00002b00  2**0
                  CONTENTS, READONLY, DEBUGGING
  6 .debug_info   00001fbc  00000000  00000000  00002db8  2**0
                  CONTENTS, READONLY, DEBUGGING
  7 .debug_abbrev 00000b97  00000000  00000000  00004d74  2**0
                  CONTENTS, READONLY, DEBUGGING
  8 .debug_line   000015c5  00000000  00000000  0000590b  2**0
                  CONTENTS, READONLY, DEBUGGING
  9 .debug_frame  00000a08  00000000  00000000  00006ed0  2**2
                  CONTENTS, READONLY, DEBUGGING
 10 .debug_str    00000e52  00000000  00000000  000078d8  2**0
                  CONTENTS, READONLY, DEBUGGING
 11 .debug_loc    0000180a  00000000  00000000  0000872a  2**0
                  CONTENTS, READONLY, DEBUGGING
 12 .debug_ranges 000002a8  00000000  00000000  00009f34  2**0
                  CONTENTS, READONLY, DEBUGGING

Disassembly of section .text:

00000000 <__vectors>:
       0:	0c 94 b1 00 	jmp	0x162	; 0x162 <__ctors_end>
       4:	0c 94 ce 00 	jmp	0x19c	; 0x19c <__bad_interrupt>
       8:	0c 94 ce 00 	jmp	0x19c	; 0x19c <__bad_interrupt>
       c:	0c 94 ce 00 	jmp	0x19c	; 0x19c <__bad_interrupt>
      10:	0c 94 ce 00 	jmp	0x19c	; 0x19c <__bad_interrupt>
      14:	0c 94 ce 00 	jmp	0x19c	; 0x19c <__bad_interrupt>
      18:	0c 94 ce 00 	jmp	0x19c	; 0x19c <__bad_interrupt>
      1c:	0c 94 ce 00 	jmp	0x19c	; 0x19c <__bad_interrupt>
      20:	0c 94 ce 00 	jmp	0x19c	; 0x19c <__bad_interrupt>
      24:	0c 94 ce 00 	jmp	0x19c	; 0x19c <__bad_interrupt>
      28:	0c 94 ce 00 	jmp	0x19c	; 0x19c <__bad_interrupt>
      2c:	0c 94 ce 00 	jmp	0x19c	; 0x19c <__bad_interrupt>
      30:	0c 94 ce 00 	jmp	0x19c	; 0x19c <__bad_interrupt>
      34:	0c 94 ce 00 	jmp	0x19c	; 0x19c <__bad_interrupt>
      38:	0c 94 ce 00 	jmp	0x19c	; 0x19c <__bad_interrupt>
      3c:	0c 94 ce 00 	jmp	0x19c	; 0x19c <__bad_interrupt>
      40:	0c 94 ce 00 	jmp	0x19c	; 0x19c <__bad_interrupt>
      44:	0c 94 ce 00 	jmp	0x19c	; 0x19c <__bad_interrupt>
      48:	0c 94 ce 00 	jmp	0x19c	; 0x19c <__bad_interrupt>
      4c:	0c 94 ce 00 	jmp	0x19c	; 0x19c <__bad_interrupt>
      50:	0c 94 ce 00 	jmp	0x19c	; 0x19c <__bad_interrupt>
      54:	0c 94 ce 00 	jmp	0x19c	; 0x19c <__bad_interrupt>
      58:	0c 94 ce 00 	jmp	0x19c	; 0x19c <__bad_interrupt>
      5c:	0c 94 ce 00 	jmp	0x19c	; 0x19c <__bad_interrupt>
      60:	0c 94 ce 00 	jmp	0x19c	; 0x19c <__bad_interrupt>
      64:	0c 94 ce 00 	jmp	0x19c	; 0x19c <__bad_interrupt>

00000068 <__trampolines_end>:
      68:	00 40       	sbci	r16, 0x00	; 0
      6a:	7a 10       	cpse	r7, r10
      6c:	f3 5a       	subi	r31, 0xA3	; 163
      6e:	00 a0       	ldd	r0, Z+32	; 0x20
      70:	72 4e       	sbci	r23, 0xE2	; 226
      72:	18 09       	sbc	r17, r8
      74:	00 10       	cpse	r0, r0
      76:	a5 d4       	rcall	.+2378   	; 0x9c2 <delay_I2C+0x3e>
      78:	e8 00       	.word	0x00e8	; ????
      7a:	00 e8       	ldi	r16, 0x80	; 128
      7c:	76 48       	sbci	r23, 0x86	; 134
      7e:	17 00       	.word	0x0017	; ????
      80:	00 e4       	ldi	r16, 0x40	; 64
      82:	0b 54       	subi	r16, 0x4B	; 75
      84:	02 00       	.word	0x0002	; ????
      86:	00 ca       	rjmp	.-3072   	; 0xfffff488 <__eeprom_end+0xff7ef488>
      88:	9a 3b       	cpi	r25, 0xBA	; 186
      8a:	00 00       	nop
      8c:	00 e1       	ldi	r16, 0x10	; 16
      8e:	f5 05       	cpc	r31, r5
      90:	00 00       	nop
      92:	80 96       	adiw	r24, 0x20	; 32
      94:	98 00       	.word	0x0098	; ????
      96:	00 00       	nop
      98:	40 42       	sbci	r20, 0x20	; 32
      9a:	0f 00       	.word	0x000f	; ????
      9c:	00 00       	nop
      9e:	a0 86       	std	Z+8, r10	; 0x08
      a0:	01 00       	.word	0x0001	; ????
      a2:	00 00       	nop
      a4:	10 27       	eor	r17, r16
      a6:	00 00       	nop
      a8:	00 00       	nop
      aa:	e8 03       	fmulsu	r22, r16
      ac:	00 00       	nop
      ae:	00 00       	nop
      b0:	64 00       	.word	0x0064	; ????
      b2:	00 00       	nop
      b4:	00 00       	nop
      b6:	0a 00       	.word	0x000a	; ????
      b8:	00 00       	nop
      ba:	00 00       	nop
      bc:	01 00       	.word	0x0001	; ????
      be:	00 00       	nop
      c0:	00 00       	nop
      c2:	2c 76       	andi	r18, 0x6C	; 108
      c4:	d8 88       	ldd	r13, Y+16	; 0x10
      c6:	dc 67       	ori	r29, 0x7C	; 124
      c8:	4f 08       	sbc	r4, r15
      ca:	23 df       	rcall	.-442    	; 0xffffff12 <__eeprom_end+0xff7eff12>
      cc:	c1 df       	rcall	.-126    	; 0x50 <__SREG__+0x11>
      ce:	ae 59       	subi	r26, 0x9E	; 158
      d0:	e1 b1       	in	r30, 0x01	; 1
      d2:	b7 96       	adiw	r30, 0x27	; 39
      d4:	e5 e3       	ldi	r30, 0x35	; 53
      d6:	e4 53       	subi	r30, 0x34	; 52
      d8:	c6 3a       	cpi	r28, 0xA6	; 166
      da:	e6 51       	subi	r30, 0x16	; 22
      dc:	99 76       	andi	r25, 0x69	; 105
      de:	96 e8       	ldi	r25, 0x86	; 134
      e0:	e6 c2       	rjmp	.+1484   	; 0x6ae <__mulsf3_pse+0x74>
      e2:	84 26       	eor	r8, r20
      e4:	eb 89       	ldd	r30, Y+19	; 0x13
      e6:	8c 9b       	sbis	0x11, 4	; 17
      e8:	62 ed       	ldi	r22, 0xD2	; 210
      ea:	40 7c       	andi	r20, 0xC0	; 192
      ec:	6f fc       	.word	0xfc6f	; ????
      ee:	ef bc       	out	0x2f, r14	; 47
      f0:	9c 9f       	mul	r25, r28
      f2:	40 f2       	brcs	.-112    	; 0x84 <__trampolines_end+0x1c>
      f4:	ba a5       	ldd	r27, Y+42	; 0x2a
      f6:	6f a5       	ldd	r22, Y+47	; 0x2f
      f8:	f4 90       	lpm	r15, Z
      fa:	05 5a       	subi	r16, 0xA5	; 165
      fc:	2a f7       	brpl	.-54     	; 0xc8 <__trampolines_end+0x60>
      fe:	5c 93       	st	X, r21
     100:	6b 6c       	ori	r22, 0xCB	; 203
     102:	f9 67       	ori	r31, 0x79	; 121
     104:	6d c1       	rjmp	.+730    	; 0x3e0 <__divsf3+0x8>
     106:	1b fc       	.word	0xfc1b	; ????
     108:	e0 e4       	ldi	r30, 0x40	; 64
     10a:	0d 47       	sbci	r16, 0x7D	; 125
     10c:	fe f5       	brtc	.+126    	; 0x18c <.do_clear_bss_loop>
     10e:	20 e6       	ldi	r18, 0x60	; 96
     110:	b5 00       	.word	0x00b5	; ????
     112:	d0 ed       	ldi	r29, 0xD0	; 208
     114:	90 2e       	mov	r9, r16
     116:	03 00       	.word	0x0003	; ????
     118:	94 35       	cpi	r25, 0x54	; 84
     11a:	77 05       	cpc	r23, r7
     11c:	00 80       	ld	r0, Z
     11e:	84 1e       	adc	r8, r20
     120:	08 00       	.word	0x0008	; ????
     122:	00 20       	and	r0, r0
     124:	4e 0a       	sbc	r4, r30
     126:	00 00       	nop
     128:	00 c8       	rjmp	.-4096   	; 0xfffff12a <__eeprom_end+0xff7ef12a>
     12a:	0c 33       	cpi	r16, 0x3C	; 60
     12c:	33 33       	cpi	r19, 0x33	; 51
     12e:	33 0f       	add	r19, r19
     130:	98 6e       	ori	r25, 0xE8	; 232
     132:	12 83       	std	Z+2, r17	; 0x02
     134:	11 41       	sbci	r17, 0x11	; 17
     136:	ef 8d       	ldd	r30, Y+31	; 0x1f
     138:	21 14       	cp	r2, r1
     13a:	89 3b       	cpi	r24, 0xB9	; 185
     13c:	e6 55       	subi	r30, 0x56	; 86
     13e:	16 cf       	rjmp	.-468    	; 0xffffff6c <__eeprom_end+0xff7eff6c>
     140:	fe e6       	ldi	r31, 0x6E	; 110
     142:	db 18       	sub	r13, r11
     144:	d1 84       	ldd	r13, Z+9	; 0x09
     146:	4b 38       	cpi	r20, 0x8B	; 139
     148:	1b f7       	brvc	.-58     	; 0x110 <__trampolines_end+0xa8>
     14a:	7c 1d       	adc	r23, r12
     14c:	90 1d       	adc	r25, r0
     14e:	a4 bb       	out	0x14, r26	; 20
     150:	e4 24       	eor	r14, r4
     152:	20 32       	cpi	r18, 0x20	; 32
     154:	84 72       	andi	r24, 0x24	; 36
     156:	5e 22       	and	r5, r30
     158:	81 00       	.word	0x0081	; ????
     15a:	c9 f1       	breq	.+114    	; 0x1ce <main+0x2e>
     15c:	24 ec       	ldi	r18, 0xC4	; 196
     15e:	a1 e5       	ldi	r26, 0x51	; 81
     160:	3d 27       	eor	r19, r29

00000162 <__ctors_end>:
     162:	11 24       	eor	r1, r1
     164:	1f be       	out	0x3f, r1	; 63
     166:	cf ef       	ldi	r28, 0xFF	; 255
     168:	d8 e0       	ldi	r29, 0x08	; 8
     16a:	de bf       	out	0x3e, r29	; 62
     16c:	cd bf       	out	0x3d, r28	; 61

0000016e <__do_copy_data>:
     16e:	11 e0       	ldi	r17, 0x01	; 1
     170:	a0 e0       	ldi	r26, 0x00	; 0
     172:	b1 e0       	ldi	r27, 0x01	; 1
     174:	e0 ef       	ldi	r30, 0xF0	; 240
     176:	f9 e2       	ldi	r31, 0x29	; 41
     178:	02 c0       	rjmp	.+4      	; 0x17e <__do_copy_data+0x10>
     17a:	05 90       	lpm	r0, Z+
     17c:	0d 92       	st	X+, r0
     17e:	ac 30       	cpi	r26, 0x0C	; 12
     180:	b1 07       	cpc	r27, r17
     182:	d9 f7       	brne	.-10     	; 0x17a <__do_copy_data+0xc>

00000184 <__do_clear_bss>:
     184:	21 e0       	ldi	r18, 0x01	; 1
     186:	ac e0       	ldi	r26, 0x0C	; 12
     188:	b1 e0       	ldi	r27, 0x01	; 1
     18a:	01 c0       	rjmp	.+2      	; 0x18e <.do_clear_bss_start>

0000018c <.do_clear_bss_loop>:
     18c:	1d 92       	st	X+, r1

0000018e <.do_clear_bss_start>:
     18e:	a4 33       	cpi	r26, 0x34	; 52
     190:	b2 07       	cpc	r27, r18
     192:	e1 f7       	brne	.-8      	; 0x18c <.do_clear_bss_loop>
     194:	0e 94 d0 00 	call	0x1a0	; 0x1a0 <main>
     198:	0c 94 f6 14 	jmp	0x29ec	; 0x29ec <_exit>

0000019c <__bad_interrupt>:
     19c:	0c 94 00 00 	jmp	0	; 0x0 <__vectors>

000001a0 <main>:
#define DEBUG_LED_conf() (DDRD |= (1 << PIND4))
#define DEBUG_LED_on() PORTD |= (1 << PIND4)
#define DEBUG_LED_off() PORTD &= ~(1 << PIND4)

int main(void)
{
     1a0:	cf 92       	push	r12
     1a2:	df 92       	push	r13
     1a4:	ef 92       	push	r14
     1a6:	ff 92       	push	r15
     1a8:	0f 93       	push	r16
     1aa:	1f 93       	push	r17
     1ac:	cf 93       	push	r28
     1ae:	df 93       	push	r29
     1b0:	cd b7       	in	r28, 0x3d	; 61
     1b2:	de b7       	in	r29, 0x3e	; 62
     1b4:	c0 54       	subi	r28, 0x40	; 64
     1b6:	d1 09       	sbc	r29, r1
     1b8:	0f b6       	in	r0, 0x3f	; 63
     1ba:	f8 94       	cli
     1bc:	de bf       	out	0x3e, r29	; 62
     1be:	0f be       	out	0x3f, r0	; 63
     1c0:	cd bf       	out	0x3d, r28	; 61
	// I2C-Address of BME280
	unsigned char slaveAddressBME280 = 0b11101110;
     1c2:	8e ee       	ldi	r24, 0xEE	; 238
     1c4:	89 83       	std	Y+1, r24	; 0x01
	
	// I2C-Address of LCD1602
	unsigned char slaveAddressLCD1602 = 0b01001110;
     1c6:	8e e4       	ldi	r24, 0x4E	; 78
     1c8:	8a 83       	std	Y+2, r24	; 0x02
	
	initI2C(10,'u');
     1ca:	45 e7       	ldi	r20, 0x75	; 117
     1cc:	60 e0       	ldi	r22, 0x00	; 0
     1ce:	70 e0       	ldi	r23, 0x00	; 0
     1d0:	80 e2       	ldi	r24, 0x20	; 32
     1d2:	91 e4       	ldi	r25, 0x41	; 65
     1d4:	0e 94 8c 04 	call	0x918	; 0x918 <initI2C>
	
	initLCD(slaveAddressLCD1602);
     1d8:	8a 81       	ldd	r24, Y+2	; 0x02
     1da:	0e 94 74 03 	call	0x6e8	; 0x6e8 <initLCD>
	
	BME280_init(slaveAddressBME280);
     1de:	89 81       	ldd	r24, Y+1	; 0x01
     1e0:	0e 94 d1 07 	call	0xfa2	; 0xfa2 <BME280_init>
	
	// config BME280 in general
	BME280_set_filter_coefficient_2();
     1e4:	0e 94 9e 08 	call	0x113c	; 0x113c <BME280_set_filter_coefficient_2>
	BME280_set_normal_mode();
     1e8:	0e 94 ca 08 	call	0x1194	; 0x1194 <BME280_set_normal_mode>
	BME280_set_standby_time_62_5();
     1ec:	0e 94 09 08 	call	0x1012	; 0x1012 <BME280_set_standby_time_62_5>
	
	// config BME280 temperature measurement
	BME280_set_temperature_oversampling_1();
     1f0:	0e 94 2b 08 	call	0x1056	; 0x1056 <BME280_set_temperature_oversampling_1>
	BME280_calibrate_temperature();
     1f4:	0e 94 df 08 	call	0x11be	; 0x11be <BME280_calibrate_temperature>
	
	// config BME280 pressure measurement
	BME280_set_pressure_oversampling_1();
     1f8:	0e 94 4d 08 	call	0x109a	; 0x109a <BME280_set_pressure_oversampling_1>
	BME280_calibrate_pressure();
     1fc:	0e 94 54 09 	call	0x12a8	; 0x12a8 <BME280_calibrate_pressure>
	
	//config BME280 humidity meaurement
	BME280_set_humidity_oversampling_1();
     200:	0e 94 6f 08 	call	0x10de	; 0x10de <BME280_set_humidity_oversampling_1>
	BME280_calibrate_humidity();
     204:	0e 94 a1 0a 	call	0x1542	; 0x1542 <BME280_calibrate_humidity>
	
	while(1)
	{
		char temp[16] = {0};
     208:	20 e1       	ldi	r18, 0x10	; 16
     20a:	ce 01       	movw	r24, r28
     20c:	41 96       	adiw	r24, 0x11	; 17
     20e:	fc 01       	movw	r30, r24
     210:	32 2f       	mov	r19, r18
     212:	11 92       	st	Z+, r1
     214:	3a 95       	dec	r19
     216:	e9 f7       	brne	.-6      	; 0x212 <main+0x72>
		dtostrf(BME280_get_temperature(), 5, 2, temp);
     218:	0e 94 40 0b 	call	0x1680	; 0x1680 <BME280_get_temperature>
     21c:	6b 01       	movw	r12, r22
     21e:	7c 01       	movw	r14, r24
     220:	ce 01       	movw	r24, r28
     222:	41 96       	adiw	r24, 0x11	; 17
     224:	8c 01       	movw	r16, r24
     226:	22 e0       	ldi	r18, 0x02	; 2
     228:	30 e0       	ldi	r19, 0x00	; 0
     22a:	45 e0       	ldi	r20, 0x05	; 5
     22c:	50 e0       	ldi	r21, 0x00	; 0
     22e:	c7 01       	movw	r24, r14
     230:	b6 01       	movw	r22, r12
     232:	0e 94 6d 12 	call	0x24da	; 0x24da <dtostrf>
		
		char press[16] = {0};
     236:	20 e1       	ldi	r18, 0x10	; 16
     238:	ce 01       	movw	r24, r28
     23a:	81 96       	adiw	r24, 0x21	; 33
     23c:	fc 01       	movw	r30, r24
     23e:	32 2f       	mov	r19, r18
     240:	11 92       	st	Z+, r1
     242:	3a 95       	dec	r19
     244:	e9 f7       	brne	.-6      	; 0x240 <main+0xa0>
		dtostrf(BME280_get_pressure()/100000, 5, 3, press);
     246:	0e 94 b3 0b 	call	0x1766	; 0x1766 <BME280_get_pressure>
     24a:	dc 01       	movw	r26, r24
     24c:	cb 01       	movw	r24, r22
     24e:	20 e0       	ldi	r18, 0x00	; 0
     250:	30 e5       	ldi	r19, 0x50	; 80
     252:	43 ec       	ldi	r20, 0xC3	; 195
     254:	57 e4       	ldi	r21, 0x47	; 71
     256:	bc 01       	movw	r22, r24
     258:	cd 01       	movw	r24, r26
     25a:	0e 94 ec 01 	call	0x3d8	; 0x3d8 <__divsf3>
     25e:	dc 01       	movw	r26, r24
     260:	cb 01       	movw	r24, r22
     262:	6c 01       	movw	r12, r24
     264:	7d 01       	movw	r14, r26
     266:	ce 01       	movw	r24, r28
     268:	81 96       	adiw	r24, 0x21	; 33
     26a:	8c 01       	movw	r16, r24
     26c:	23 e0       	ldi	r18, 0x03	; 3
     26e:	30 e0       	ldi	r19, 0x00	; 0
     270:	45 e0       	ldi	r20, 0x05	; 5
     272:	50 e0       	ldi	r21, 0x00	; 0
     274:	c7 01       	movw	r24, r14
     276:	b6 01       	movw	r22, r12
     278:	0e 94 6d 12 	call	0x24da	; 0x24da <dtostrf>
		
		char hum[16] = {0};
     27c:	20 e1       	ldi	r18, 0x10	; 16
     27e:	ce 01       	movw	r24, r28
     280:	c1 96       	adiw	r24, 0x31	; 49
     282:	fc 01       	movw	r30, r24
     284:	32 2f       	mov	r19, r18
     286:	11 92       	st	Z+, r1
     288:	3a 95       	dec	r19
     28a:	e9 f7       	brne	.-6      	; 0x286 <main+0xe6>
		dtostrf(BME280_get_humidity(), 4, 2, hum);
     28c:	0e 94 26 0c 	call	0x184c	; 0x184c <BME280_get_humidity>
     290:	6b 01       	movw	r12, r22
     292:	7c 01       	movw	r14, r24
     294:	ce 01       	movw	r24, r28
     296:	c1 96       	adiw	r24, 0x31	; 49
     298:	8c 01       	movw	r16, r24
     29a:	22 e0       	ldi	r18, 0x02	; 2
     29c:	30 e0       	ldi	r19, 0x00	; 0
     29e:	44 e0       	ldi	r20, 0x04	; 4
     2a0:	50 e0       	ldi	r21, 0x00	; 0
     2a2:	c7 01       	movw	r24, r14
     2a4:	b6 01       	movw	r22, r12
     2a6:	0e 94 6d 12 	call	0x24da	; 0x24da <dtostrf>
		
		setCursor(0, 0);
     2aa:	60 e0       	ldi	r22, 0x00	; 0
     2ac:	80 e0       	ldi	r24, 0x00	; 0
     2ae:	0e 94 6a 04 	call	0x8d4	; 0x8d4 <setCursor>
		writeString(temp);
     2b2:	ce 01       	movw	r24, r28
     2b4:	41 96       	adiw	r24, 0x11	; 17
     2b6:	0e 94 76 04 	call	0x8ec	; 0x8ec <writeString>
		writeChar(0xDF);
     2ba:	8f ed       	ldi	r24, 0xDF	; 223
     2bc:	0e 94 73 04 	call	0x8e6	; 0x8e6 <writeChar>
		writeString("C");
     2c0:	85 e0       	ldi	r24, 0x05	; 5
     2c2:	91 e0       	ldi	r25, 0x01	; 1
     2c4:	0e 94 76 04 	call	0x8ec	; 0x8ec <writeString>
		
		setCursor(1, 0);
     2c8:	60 e0       	ldi	r22, 0x00	; 0
     2ca:	81 e0       	ldi	r24, 0x01	; 1
     2cc:	0e 94 6a 04 	call	0x8d4	; 0x8d4 <setCursor>
		writeString(press);
     2d0:	ce 01       	movw	r24, r28
     2d2:	81 96       	adiw	r24, 0x21	; 33
     2d4:	0e 94 76 04 	call	0x8ec	; 0x8ec <writeString>
		writeString(" bar");
     2d8:	87 e0       	ldi	r24, 0x07	; 7
     2da:	91 e0       	ldi	r25, 0x01	; 1
     2dc:	0e 94 76 04 	call	0x8ec	; 0x8ec <writeString>
		setCursor(1, 0);
		writeString(hum);
		writeString(" %rh");
		*/
		
		setCursor(3,17);
     2e0:	61 e1       	ldi	r22, 0x11	; 17
     2e2:	83 e0       	ldi	r24, 0x03	; 3
     2e4:	0e 94 6a 04 	call	0x8d4	; 0x8d4 <setCursor>
     2e8:	80 e0       	ldi	r24, 0x00	; 0
     2ea:	90 e0       	ldi	r25, 0x00	; 0
     2ec:	a8 ec       	ldi	r26, 0xC8	; 200
     2ee:	b2 e4       	ldi	r27, 0x42	; 66
     2f0:	8b 83       	std	Y+3, r24	; 0x03
     2f2:	9c 83       	std	Y+4, r25	; 0x04
     2f4:	ad 83       	std	Y+5, r26	; 0x05
     2f6:	be 83       	std	Y+6, r27	; 0x06

	__builtin_avr_delay_cycles(__ticks_dc);

#else
	uint16_t __ticks;
	__tmp = ((F_CPU) / 4e3) * __ms;
     2f8:	20 e0       	ldi	r18, 0x00	; 0
     2fa:	30 e0       	ldi	r19, 0x00	; 0
     2fc:	4a e7       	ldi	r20, 0x7A	; 122
     2fe:	55 e4       	ldi	r21, 0x45	; 69
     300:	6b 81       	ldd	r22, Y+3	; 0x03
     302:	7c 81       	ldd	r23, Y+4	; 0x04
     304:	8d 81       	ldd	r24, Y+5	; 0x05
     306:	9e 81       	ldd	r25, Y+6	; 0x06
     308:	0e 94 07 03 	call	0x60e	; 0x60e <__mulsf3>
     30c:	dc 01       	movw	r26, r24
     30e:	cb 01       	movw	r24, r22
     310:	8f 83       	std	Y+7, r24	; 0x07
     312:	98 87       	std	Y+8, r25	; 0x08
     314:	a9 87       	std	Y+9, r26	; 0x09
     316:	ba 87       	std	Y+10, r27	; 0x0a
	if (__tmp < 1.0)
     318:	20 e0       	ldi	r18, 0x00	; 0
     31a:	30 e0       	ldi	r19, 0x00	; 0
     31c:	40 e8       	ldi	r20, 0x80	; 128
     31e:	5f e3       	ldi	r21, 0x3F	; 63
     320:	6f 81       	ldd	r22, Y+7	; 0x07
     322:	78 85       	ldd	r23, Y+8	; 0x08
     324:	89 85       	ldd	r24, Y+9	; 0x09
     326:	9a 85       	ldd	r25, Y+10	; 0x0a
     328:	0e 94 e7 01 	call	0x3ce	; 0x3ce <__cmpsf2>
     32c:	88 23       	and	r24, r24
     32e:	2c f4       	brge	.+10     	; 0x33a <main+0x19a>
		__ticks = 1;
     330:	81 e0       	ldi	r24, 0x01	; 1
     332:	90 e0       	ldi	r25, 0x00	; 0
     334:	9c 87       	std	Y+12, r25	; 0x0c
     336:	8b 87       	std	Y+11, r24	; 0x0b
     338:	3f c0       	rjmp	.+126    	; 0x3b8 <main+0x218>
	else if (__tmp > 65535)
     33a:	20 e0       	ldi	r18, 0x00	; 0
     33c:	3f ef       	ldi	r19, 0xFF	; 255
     33e:	4f e7       	ldi	r20, 0x7F	; 127
     340:	57 e4       	ldi	r21, 0x47	; 71
     342:	6f 81       	ldd	r22, Y+7	; 0x07
     344:	78 85       	ldd	r23, Y+8	; 0x08
     346:	89 85       	ldd	r24, Y+9	; 0x09
     348:	9a 85       	ldd	r25, Y+10	; 0x0a
     34a:	0e 94 02 03 	call	0x604	; 0x604 <__gesf2>
     34e:	18 16       	cp	r1, r24
     350:	4c f5       	brge	.+82     	; 0x3a4 <main+0x204>
	{
		//	__ticks = requested delay in 1/10 ms
		__ticks = (uint16_t) (__ms * 10.0);
     352:	20 e0       	ldi	r18, 0x00	; 0
     354:	30 e0       	ldi	r19, 0x00	; 0
     356:	40 e2       	ldi	r20, 0x20	; 32
     358:	51 e4       	ldi	r21, 0x41	; 65
     35a:	6b 81       	ldd	r22, Y+3	; 0x03
     35c:	7c 81       	ldd	r23, Y+4	; 0x04
     35e:	8d 81       	ldd	r24, Y+5	; 0x05
     360:	9e 81       	ldd	r25, Y+6	; 0x06
     362:	0e 94 07 03 	call	0x60e	; 0x60e <__mulsf3>
     366:	dc 01       	movw	r26, r24
     368:	cb 01       	movw	r24, r22
     36a:	bc 01       	movw	r22, r24
     36c:	cd 01       	movw	r24, r26
     36e:	0e 94 5e 02 	call	0x4bc	; 0x4bc <__fixunssfsi>
     372:	dc 01       	movw	r26, r24
     374:	cb 01       	movw	r24, r22
     376:	9c 87       	std	Y+12, r25	; 0x0c
     378:	8b 87       	std	Y+11, r24	; 0x0b
     37a:	0f c0       	rjmp	.+30     	; 0x39a <main+0x1fa>
     37c:	80 e9       	ldi	r24, 0x90	; 144
     37e:	91 e0       	ldi	r25, 0x01	; 1
     380:	9e 87       	std	Y+14, r25	; 0x0e
     382:	8d 87       	std	Y+13, r24	; 0x0d
    milliseconds can be achieved.
 */
void
_delay_loop_2(uint16_t __count)
{
	__asm__ volatile (
     384:	8d 85       	ldd	r24, Y+13	; 0x0d
     386:	9e 85       	ldd	r25, Y+14	; 0x0e
     388:	01 97       	sbiw	r24, 0x01	; 1
     38a:	f1 f7       	brne	.-4      	; 0x388 <main+0x1e8>
     38c:	9e 87       	std	Y+14, r25	; 0x0e
     38e:	8d 87       	std	Y+13, r24	; 0x0d
		while(__ticks)
		{
			// wait 1/10 ms
			_delay_loop_2(((F_CPU) / 4e3) / 10);
			__ticks --;
     390:	8b 85       	ldd	r24, Y+11	; 0x0b
     392:	9c 85       	ldd	r25, Y+12	; 0x0c
     394:	01 97       	sbiw	r24, 0x01	; 1
     396:	9c 87       	std	Y+12, r25	; 0x0c
     398:	8b 87       	std	Y+11, r24	; 0x0b
		__ticks = 1;
	else if (__tmp > 65535)
	{
		//	__ticks = requested delay in 1/10 ms
		__ticks = (uint16_t) (__ms * 10.0);
		while(__ticks)
     39a:	8b 85       	ldd	r24, Y+11	; 0x0b
     39c:	9c 85       	ldd	r25, Y+12	; 0x0c
     39e:	89 2b       	or	r24, r25
     3a0:	69 f7       	brne	.-38     	; 0x37c <main+0x1dc>
     3a2:	14 c0       	rjmp	.+40     	; 0x3cc <main+0x22c>
			__ticks --;
		}
		return;
	}
	else
		__ticks = (uint16_t)__tmp;
     3a4:	6f 81       	ldd	r22, Y+7	; 0x07
     3a6:	78 85       	ldd	r23, Y+8	; 0x08
     3a8:	89 85       	ldd	r24, Y+9	; 0x09
     3aa:	9a 85       	ldd	r25, Y+10	; 0x0a
     3ac:	0e 94 5e 02 	call	0x4bc	; 0x4bc <__fixunssfsi>
     3b0:	dc 01       	movw	r26, r24
     3b2:	cb 01       	movw	r24, r22
     3b4:	9c 87       	std	Y+12, r25	; 0x0c
     3b6:	8b 87       	std	Y+11, r24	; 0x0b
     3b8:	8b 85       	ldd	r24, Y+11	; 0x0b
     3ba:	9c 85       	ldd	r25, Y+12	; 0x0c
     3bc:	98 8b       	std	Y+16, r25	; 0x10
     3be:	8f 87       	std	Y+15, r24	; 0x0f
     3c0:	8f 85       	ldd	r24, Y+15	; 0x0f
     3c2:	98 89       	ldd	r25, Y+16	; 0x10
     3c4:	01 97       	sbiw	r24, 0x01	; 1
     3c6:	f1 f7       	brne	.-4      	; 0x3c4 <main+0x224>
     3c8:	98 8b       	std	Y+16, r25	; 0x10
     3ca:	8f 87       	std	Y+15, r24	; 0x0f
		
		_delay_ms(100);
	}
     3cc:	1d cf       	rjmp	.-454    	; 0x208 <main+0x68>

000003ce <__cmpsf2>:
     3ce:	0e 94 8d 02 	call	0x51a	; 0x51a <__fp_cmp>
     3d2:	08 f4       	brcc	.+2      	; 0x3d6 <__cmpsf2+0x8>
     3d4:	81 e0       	ldi	r24, 0x01	; 1
     3d6:	08 95       	ret

000003d8 <__divsf3>:
     3d8:	0e 94 00 02 	call	0x400	; 0x400 <__divsf3x>
     3dc:	0c 94 c8 02 	jmp	0x590	; 0x590 <__fp_round>
     3e0:	0e 94 c1 02 	call	0x582	; 0x582 <__fp_pscB>
     3e4:	58 f0       	brcs	.+22     	; 0x3fc <__divsf3+0x24>
     3e6:	0e 94 ba 02 	call	0x574	; 0x574 <__fp_pscA>
     3ea:	40 f0       	brcs	.+16     	; 0x3fc <__divsf3+0x24>
     3ec:	29 f4       	brne	.+10     	; 0x3f8 <__divsf3+0x20>
     3ee:	5f 3f       	cpi	r21, 0xFF	; 255
     3f0:	29 f0       	breq	.+10     	; 0x3fc <__divsf3+0x24>
     3f2:	0c 94 b1 02 	jmp	0x562	; 0x562 <__fp_inf>
     3f6:	51 11       	cpse	r21, r1
     3f8:	0c 94 fc 02 	jmp	0x5f8	; 0x5f8 <__fp_szero>
     3fc:	0c 94 b7 02 	jmp	0x56e	; 0x56e <__fp_nan>

00000400 <__divsf3x>:
     400:	0e 94 d9 02 	call	0x5b2	; 0x5b2 <__fp_split3>
     404:	68 f3       	brcs	.-38     	; 0x3e0 <__divsf3+0x8>

00000406 <__divsf3_pse>:
     406:	99 23       	and	r25, r25
     408:	b1 f3       	breq	.-20     	; 0x3f6 <__divsf3+0x1e>
     40a:	55 23       	and	r21, r21
     40c:	91 f3       	breq	.-28     	; 0x3f2 <__divsf3+0x1a>
     40e:	95 1b       	sub	r25, r21
     410:	55 0b       	sbc	r21, r21
     412:	bb 27       	eor	r27, r27
     414:	aa 27       	eor	r26, r26
     416:	62 17       	cp	r22, r18
     418:	73 07       	cpc	r23, r19
     41a:	84 07       	cpc	r24, r20
     41c:	38 f0       	brcs	.+14     	; 0x42c <__divsf3_pse+0x26>
     41e:	9f 5f       	subi	r25, 0xFF	; 255
     420:	5f 4f       	sbci	r21, 0xFF	; 255
     422:	22 0f       	add	r18, r18
     424:	33 1f       	adc	r19, r19
     426:	44 1f       	adc	r20, r20
     428:	aa 1f       	adc	r26, r26
     42a:	a9 f3       	breq	.-22     	; 0x416 <__divsf3_pse+0x10>
     42c:	35 d0       	rcall	.+106    	; 0x498 <__divsf3_pse+0x92>
     42e:	0e 2e       	mov	r0, r30
     430:	3a f0       	brmi	.+14     	; 0x440 <__divsf3_pse+0x3a>
     432:	e0 e8       	ldi	r30, 0x80	; 128
     434:	32 d0       	rcall	.+100    	; 0x49a <__divsf3_pse+0x94>
     436:	91 50       	subi	r25, 0x01	; 1
     438:	50 40       	sbci	r21, 0x00	; 0
     43a:	e6 95       	lsr	r30
     43c:	00 1c       	adc	r0, r0
     43e:	ca f7       	brpl	.-14     	; 0x432 <__divsf3_pse+0x2c>
     440:	2b d0       	rcall	.+86     	; 0x498 <__divsf3_pse+0x92>
     442:	fe 2f       	mov	r31, r30
     444:	29 d0       	rcall	.+82     	; 0x498 <__divsf3_pse+0x92>
     446:	66 0f       	add	r22, r22
     448:	77 1f       	adc	r23, r23
     44a:	88 1f       	adc	r24, r24
     44c:	bb 1f       	adc	r27, r27
     44e:	26 17       	cp	r18, r22
     450:	37 07       	cpc	r19, r23
     452:	48 07       	cpc	r20, r24
     454:	ab 07       	cpc	r26, r27
     456:	b0 e8       	ldi	r27, 0x80	; 128
     458:	09 f0       	breq	.+2      	; 0x45c <__divsf3_pse+0x56>
     45a:	bb 0b       	sbc	r27, r27
     45c:	80 2d       	mov	r24, r0
     45e:	bf 01       	movw	r22, r30
     460:	ff 27       	eor	r31, r31
     462:	93 58       	subi	r25, 0x83	; 131
     464:	5f 4f       	sbci	r21, 0xFF	; 255
     466:	3a f0       	brmi	.+14     	; 0x476 <__divsf3_pse+0x70>
     468:	9e 3f       	cpi	r25, 0xFE	; 254
     46a:	51 05       	cpc	r21, r1
     46c:	78 f0       	brcs	.+30     	; 0x48c <__divsf3_pse+0x86>
     46e:	0c 94 b1 02 	jmp	0x562	; 0x562 <__fp_inf>
     472:	0c 94 fc 02 	jmp	0x5f8	; 0x5f8 <__fp_szero>
     476:	5f 3f       	cpi	r21, 0xFF	; 255
     478:	e4 f3       	brlt	.-8      	; 0x472 <__divsf3_pse+0x6c>
     47a:	98 3e       	cpi	r25, 0xE8	; 232
     47c:	d4 f3       	brlt	.-12     	; 0x472 <__divsf3_pse+0x6c>
     47e:	86 95       	lsr	r24
     480:	77 95       	ror	r23
     482:	67 95       	ror	r22
     484:	b7 95       	ror	r27
     486:	f7 95       	ror	r31
     488:	9f 5f       	subi	r25, 0xFF	; 255
     48a:	c9 f7       	brne	.-14     	; 0x47e <__divsf3_pse+0x78>
     48c:	88 0f       	add	r24, r24
     48e:	91 1d       	adc	r25, r1
     490:	96 95       	lsr	r25
     492:	87 95       	ror	r24
     494:	97 f9       	bld	r25, 7
     496:	08 95       	ret
     498:	e1 e0       	ldi	r30, 0x01	; 1
     49a:	66 0f       	add	r22, r22
     49c:	77 1f       	adc	r23, r23
     49e:	88 1f       	adc	r24, r24
     4a0:	bb 1f       	adc	r27, r27
     4a2:	62 17       	cp	r22, r18
     4a4:	73 07       	cpc	r23, r19
     4a6:	84 07       	cpc	r24, r20
     4a8:	ba 07       	cpc	r27, r26
     4aa:	20 f0       	brcs	.+8      	; 0x4b4 <__divsf3_pse+0xae>
     4ac:	62 1b       	sub	r22, r18
     4ae:	73 0b       	sbc	r23, r19
     4b0:	84 0b       	sbc	r24, r20
     4b2:	ba 0b       	sbc	r27, r26
     4b4:	ee 1f       	adc	r30, r30
     4b6:	88 f7       	brcc	.-30     	; 0x49a <__divsf3_pse+0x94>
     4b8:	e0 95       	com	r30
     4ba:	08 95       	ret

000004bc <__fixunssfsi>:
     4bc:	0e 94 e1 02 	call	0x5c2	; 0x5c2 <__fp_splitA>
     4c0:	88 f0       	brcs	.+34     	; 0x4e4 <__fixunssfsi+0x28>
     4c2:	9f 57       	subi	r25, 0x7F	; 127
     4c4:	98 f0       	brcs	.+38     	; 0x4ec <__fixunssfsi+0x30>
     4c6:	b9 2f       	mov	r27, r25
     4c8:	99 27       	eor	r25, r25
     4ca:	b7 51       	subi	r27, 0x17	; 23
     4cc:	b0 f0       	brcs	.+44     	; 0x4fa <__fixunssfsi+0x3e>
     4ce:	e1 f0       	breq	.+56     	; 0x508 <__fixunssfsi+0x4c>
     4d0:	66 0f       	add	r22, r22
     4d2:	77 1f       	adc	r23, r23
     4d4:	88 1f       	adc	r24, r24
     4d6:	99 1f       	adc	r25, r25
     4d8:	1a f0       	brmi	.+6      	; 0x4e0 <__fixunssfsi+0x24>
     4da:	ba 95       	dec	r27
     4dc:	c9 f7       	brne	.-14     	; 0x4d0 <__fixunssfsi+0x14>
     4de:	14 c0       	rjmp	.+40     	; 0x508 <__fixunssfsi+0x4c>
     4e0:	b1 30       	cpi	r27, 0x01	; 1
     4e2:	91 f0       	breq	.+36     	; 0x508 <__fixunssfsi+0x4c>
     4e4:	0e 94 fb 02 	call	0x5f6	; 0x5f6 <__fp_zero>
     4e8:	b1 e0       	ldi	r27, 0x01	; 1
     4ea:	08 95       	ret
     4ec:	0c 94 fb 02 	jmp	0x5f6	; 0x5f6 <__fp_zero>
     4f0:	67 2f       	mov	r22, r23
     4f2:	78 2f       	mov	r23, r24
     4f4:	88 27       	eor	r24, r24
     4f6:	b8 5f       	subi	r27, 0xF8	; 248
     4f8:	39 f0       	breq	.+14     	; 0x508 <__fixunssfsi+0x4c>
     4fa:	b9 3f       	cpi	r27, 0xF9	; 249
     4fc:	cc f3       	brlt	.-14     	; 0x4f0 <__fixunssfsi+0x34>
     4fe:	86 95       	lsr	r24
     500:	77 95       	ror	r23
     502:	67 95       	ror	r22
     504:	b3 95       	inc	r27
     506:	d9 f7       	brne	.-10     	; 0x4fe <__fixunssfsi+0x42>
     508:	3e f4       	brtc	.+14     	; 0x518 <__fixunssfsi+0x5c>
     50a:	90 95       	com	r25
     50c:	80 95       	com	r24
     50e:	70 95       	com	r23
     510:	61 95       	neg	r22
     512:	7f 4f       	sbci	r23, 0xFF	; 255
     514:	8f 4f       	sbci	r24, 0xFF	; 255
     516:	9f 4f       	sbci	r25, 0xFF	; 255
     518:	08 95       	ret

0000051a <__fp_cmp>:
     51a:	99 0f       	add	r25, r25
     51c:	00 08       	sbc	r0, r0
     51e:	55 0f       	add	r21, r21
     520:	aa 0b       	sbc	r26, r26
     522:	e0 e8       	ldi	r30, 0x80	; 128
     524:	fe ef       	ldi	r31, 0xFE	; 254
     526:	16 16       	cp	r1, r22
     528:	17 06       	cpc	r1, r23
     52a:	e8 07       	cpc	r30, r24
     52c:	f9 07       	cpc	r31, r25
     52e:	c0 f0       	brcs	.+48     	; 0x560 <__fp_cmp+0x46>
     530:	12 16       	cp	r1, r18
     532:	13 06       	cpc	r1, r19
     534:	e4 07       	cpc	r30, r20
     536:	f5 07       	cpc	r31, r21
     538:	98 f0       	brcs	.+38     	; 0x560 <__fp_cmp+0x46>
     53a:	62 1b       	sub	r22, r18
     53c:	73 0b       	sbc	r23, r19
     53e:	84 0b       	sbc	r24, r20
     540:	95 0b       	sbc	r25, r21
     542:	39 f4       	brne	.+14     	; 0x552 <__fp_cmp+0x38>
     544:	0a 26       	eor	r0, r26
     546:	61 f0       	breq	.+24     	; 0x560 <__fp_cmp+0x46>
     548:	23 2b       	or	r18, r19
     54a:	24 2b       	or	r18, r20
     54c:	25 2b       	or	r18, r21
     54e:	21 f4       	brne	.+8      	; 0x558 <__fp_cmp+0x3e>
     550:	08 95       	ret
     552:	0a 26       	eor	r0, r26
     554:	09 f4       	brne	.+2      	; 0x558 <__fp_cmp+0x3e>
     556:	a1 40       	sbci	r26, 0x01	; 1
     558:	a6 95       	lsr	r26
     55a:	8f ef       	ldi	r24, 0xFF	; 255
     55c:	81 1d       	adc	r24, r1
     55e:	81 1d       	adc	r24, r1
     560:	08 95       	ret

00000562 <__fp_inf>:
     562:	97 f9       	bld	r25, 7
     564:	9f 67       	ori	r25, 0x7F	; 127
     566:	80 e8       	ldi	r24, 0x80	; 128
     568:	70 e0       	ldi	r23, 0x00	; 0
     56a:	60 e0       	ldi	r22, 0x00	; 0
     56c:	08 95       	ret

0000056e <__fp_nan>:
     56e:	9f ef       	ldi	r25, 0xFF	; 255
     570:	80 ec       	ldi	r24, 0xC0	; 192
     572:	08 95       	ret

00000574 <__fp_pscA>:
     574:	00 24       	eor	r0, r0
     576:	0a 94       	dec	r0
     578:	16 16       	cp	r1, r22
     57a:	17 06       	cpc	r1, r23
     57c:	18 06       	cpc	r1, r24
     57e:	09 06       	cpc	r0, r25
     580:	08 95       	ret

00000582 <__fp_pscB>:
     582:	00 24       	eor	r0, r0
     584:	0a 94       	dec	r0
     586:	12 16       	cp	r1, r18
     588:	13 06       	cpc	r1, r19
     58a:	14 06       	cpc	r1, r20
     58c:	05 06       	cpc	r0, r21
     58e:	08 95       	ret

00000590 <__fp_round>:
     590:	09 2e       	mov	r0, r25
     592:	03 94       	inc	r0
     594:	00 0c       	add	r0, r0
     596:	11 f4       	brne	.+4      	; 0x59c <__fp_round+0xc>
     598:	88 23       	and	r24, r24
     59a:	52 f0       	brmi	.+20     	; 0x5b0 <__fp_round+0x20>
     59c:	bb 0f       	add	r27, r27
     59e:	40 f4       	brcc	.+16     	; 0x5b0 <__fp_round+0x20>
     5a0:	bf 2b       	or	r27, r31
     5a2:	11 f4       	brne	.+4      	; 0x5a8 <__fp_round+0x18>
     5a4:	60 ff       	sbrs	r22, 0
     5a6:	04 c0       	rjmp	.+8      	; 0x5b0 <__fp_round+0x20>
     5a8:	6f 5f       	subi	r22, 0xFF	; 255
     5aa:	7f 4f       	sbci	r23, 0xFF	; 255
     5ac:	8f 4f       	sbci	r24, 0xFF	; 255
     5ae:	9f 4f       	sbci	r25, 0xFF	; 255
     5b0:	08 95       	ret

000005b2 <__fp_split3>:
     5b2:	57 fd       	sbrc	r21, 7
     5b4:	90 58       	subi	r25, 0x80	; 128
     5b6:	44 0f       	add	r20, r20
     5b8:	55 1f       	adc	r21, r21
     5ba:	59 f0       	breq	.+22     	; 0x5d2 <__fp_splitA+0x10>
     5bc:	5f 3f       	cpi	r21, 0xFF	; 255
     5be:	71 f0       	breq	.+28     	; 0x5dc <__fp_splitA+0x1a>
     5c0:	47 95       	ror	r20

000005c2 <__fp_splitA>:
     5c2:	88 0f       	add	r24, r24
     5c4:	97 fb       	bst	r25, 7
     5c6:	99 1f       	adc	r25, r25
     5c8:	61 f0       	breq	.+24     	; 0x5e2 <__fp_splitA+0x20>
     5ca:	9f 3f       	cpi	r25, 0xFF	; 255
     5cc:	79 f0       	breq	.+30     	; 0x5ec <__fp_splitA+0x2a>
     5ce:	87 95       	ror	r24
     5d0:	08 95       	ret
     5d2:	12 16       	cp	r1, r18
     5d4:	13 06       	cpc	r1, r19
     5d6:	14 06       	cpc	r1, r20
     5d8:	55 1f       	adc	r21, r21
     5da:	f2 cf       	rjmp	.-28     	; 0x5c0 <__fp_split3+0xe>
     5dc:	46 95       	lsr	r20
     5de:	f1 df       	rcall	.-30     	; 0x5c2 <__fp_splitA>
     5e0:	08 c0       	rjmp	.+16     	; 0x5f2 <__fp_splitA+0x30>
     5e2:	16 16       	cp	r1, r22
     5e4:	17 06       	cpc	r1, r23
     5e6:	18 06       	cpc	r1, r24
     5e8:	99 1f       	adc	r25, r25
     5ea:	f1 cf       	rjmp	.-30     	; 0x5ce <__fp_splitA+0xc>
     5ec:	86 95       	lsr	r24
     5ee:	71 05       	cpc	r23, r1
     5f0:	61 05       	cpc	r22, r1
     5f2:	08 94       	sec
     5f4:	08 95       	ret

000005f6 <__fp_zero>:
     5f6:	e8 94       	clt

000005f8 <__fp_szero>:
     5f8:	bb 27       	eor	r27, r27
     5fa:	66 27       	eor	r22, r22
     5fc:	77 27       	eor	r23, r23
     5fe:	cb 01       	movw	r24, r22
     600:	97 f9       	bld	r25, 7
     602:	08 95       	ret

00000604 <__gesf2>:
     604:	0e 94 8d 02 	call	0x51a	; 0x51a <__fp_cmp>
     608:	08 f4       	brcc	.+2      	; 0x60c <__gesf2+0x8>
     60a:	8f ef       	ldi	r24, 0xFF	; 255
     60c:	08 95       	ret

0000060e <__mulsf3>:
     60e:	0e 94 1a 03 	call	0x634	; 0x634 <__mulsf3x>
     612:	0c 94 c8 02 	jmp	0x590	; 0x590 <__fp_round>
     616:	0e 94 ba 02 	call	0x574	; 0x574 <__fp_pscA>
     61a:	38 f0       	brcs	.+14     	; 0x62a <__mulsf3+0x1c>
     61c:	0e 94 c1 02 	call	0x582	; 0x582 <__fp_pscB>
     620:	20 f0       	brcs	.+8      	; 0x62a <__mulsf3+0x1c>
     622:	95 23       	and	r25, r21
     624:	11 f0       	breq	.+4      	; 0x62a <__mulsf3+0x1c>
     626:	0c 94 b1 02 	jmp	0x562	; 0x562 <__fp_inf>
     62a:	0c 94 b7 02 	jmp	0x56e	; 0x56e <__fp_nan>
     62e:	11 24       	eor	r1, r1
     630:	0c 94 fc 02 	jmp	0x5f8	; 0x5f8 <__fp_szero>

00000634 <__mulsf3x>:
     634:	0e 94 d9 02 	call	0x5b2	; 0x5b2 <__fp_split3>
     638:	70 f3       	brcs	.-36     	; 0x616 <__mulsf3+0x8>

0000063a <__mulsf3_pse>:
     63a:	95 9f       	mul	r25, r21
     63c:	c1 f3       	breq	.-16     	; 0x62e <__mulsf3+0x20>
     63e:	95 0f       	add	r25, r21
     640:	50 e0       	ldi	r21, 0x00	; 0
     642:	55 1f       	adc	r21, r21
     644:	62 9f       	mul	r22, r18
     646:	f0 01       	movw	r30, r0
     648:	72 9f       	mul	r23, r18
     64a:	bb 27       	eor	r27, r27
     64c:	f0 0d       	add	r31, r0
     64e:	b1 1d       	adc	r27, r1
     650:	63 9f       	mul	r22, r19
     652:	aa 27       	eor	r26, r26
     654:	f0 0d       	add	r31, r0
     656:	b1 1d       	adc	r27, r1
     658:	aa 1f       	adc	r26, r26
     65a:	64 9f       	mul	r22, r20
     65c:	66 27       	eor	r22, r22
     65e:	b0 0d       	add	r27, r0
     660:	a1 1d       	adc	r26, r1
     662:	66 1f       	adc	r22, r22
     664:	82 9f       	mul	r24, r18
     666:	22 27       	eor	r18, r18
     668:	b0 0d       	add	r27, r0
     66a:	a1 1d       	adc	r26, r1
     66c:	62 1f       	adc	r22, r18
     66e:	73 9f       	mul	r23, r19
     670:	b0 0d       	add	r27, r0
     672:	a1 1d       	adc	r26, r1
     674:	62 1f       	adc	r22, r18
     676:	83 9f       	mul	r24, r19
     678:	a0 0d       	add	r26, r0
     67a:	61 1d       	adc	r22, r1
     67c:	22 1f       	adc	r18, r18
     67e:	74 9f       	mul	r23, r20
     680:	33 27       	eor	r19, r19
     682:	a0 0d       	add	r26, r0
     684:	61 1d       	adc	r22, r1
     686:	23 1f       	adc	r18, r19
     688:	84 9f       	mul	r24, r20
     68a:	60 0d       	add	r22, r0
     68c:	21 1d       	adc	r18, r1
     68e:	82 2f       	mov	r24, r18
     690:	76 2f       	mov	r23, r22
     692:	6a 2f       	mov	r22, r26
     694:	11 24       	eor	r1, r1
     696:	9f 57       	subi	r25, 0x7F	; 127
     698:	50 40       	sbci	r21, 0x00	; 0
     69a:	9a f0       	brmi	.+38     	; 0x6c2 <__mulsf3_pse+0x88>
     69c:	f1 f0       	breq	.+60     	; 0x6da <__mulsf3_pse+0xa0>
     69e:	88 23       	and	r24, r24
     6a0:	4a f0       	brmi	.+18     	; 0x6b4 <__mulsf3_pse+0x7a>
     6a2:	ee 0f       	add	r30, r30
     6a4:	ff 1f       	adc	r31, r31
     6a6:	bb 1f       	adc	r27, r27
     6a8:	66 1f       	adc	r22, r22
     6aa:	77 1f       	adc	r23, r23
     6ac:	88 1f       	adc	r24, r24
     6ae:	91 50       	subi	r25, 0x01	; 1
     6b0:	50 40       	sbci	r21, 0x00	; 0
     6b2:	a9 f7       	brne	.-22     	; 0x69e <__mulsf3_pse+0x64>
     6b4:	9e 3f       	cpi	r25, 0xFE	; 254
     6b6:	51 05       	cpc	r21, r1
     6b8:	80 f0       	brcs	.+32     	; 0x6da <__mulsf3_pse+0xa0>
     6ba:	0c 94 b1 02 	jmp	0x562	; 0x562 <__fp_inf>
     6be:	0c 94 fc 02 	jmp	0x5f8	; 0x5f8 <__fp_szero>
     6c2:	5f 3f       	cpi	r21, 0xFF	; 255
     6c4:	e4 f3       	brlt	.-8      	; 0x6be <__mulsf3_pse+0x84>
     6c6:	98 3e       	cpi	r25, 0xE8	; 232
     6c8:	d4 f3       	brlt	.-12     	; 0x6be <__mulsf3_pse+0x84>
     6ca:	86 95       	lsr	r24
     6cc:	77 95       	ror	r23
     6ce:	67 95       	ror	r22
     6d0:	b7 95       	ror	r27
     6d2:	f7 95       	ror	r31
     6d4:	e7 95       	ror	r30
     6d6:	9f 5f       	subi	r25, 0xFF	; 255
     6d8:	c1 f7       	brne	.-16     	; 0x6ca <__mulsf3_pse+0x90>
     6da:	fe 2b       	or	r31, r30
     6dc:	88 0f       	add	r24, r24
     6de:	91 1d       	adc	r25, r1
     6e0:	96 95       	lsr	r25
     6e2:	87 95       	ror	r24
     6e4:	97 f9       	bld	r25, 7
     6e6:	08 95       	ret

000006e8 <initLCD>:

/************************************************************************/
/* Initializes the LCD for 4-Bit mode                                   */
/************************************************************************/
void initLCD(char slaveAddress)
{
     6e8:	cf 93       	push	r28
     6ea:	c8 2f       	mov	r28, r24
	initI2C(10,'u');
     6ec:	45 e7       	ldi	r20, 0x75	; 117
     6ee:	60 e0       	ldi	r22, 0x00	; 0
     6f0:	70 e0       	ldi	r23, 0x00	; 0
     6f2:	80 e2       	ldi	r24, 0x20	; 32
     6f4:	91 e4       	ldi	r25, 0x41	; 65
     6f6:	0e 94 8c 04 	call	0x918	; 0x918 <initI2C>
	#else
		//round up by default
		__ticks_dc = (uint32_t)(ceil(fabs(__tmp)));
	#endif

	__builtin_avr_delay_cycles(__ticks_dc);
     6fa:	2f ef       	ldi	r18, 0xFF	; 255
     6fc:	89 e6       	ldi	r24, 0x69	; 105
     6fe:	98 e1       	ldi	r25, 0x18	; 24
     700:	21 50       	subi	r18, 0x01	; 1
     702:	80 40       	sbci	r24, 0x00	; 0
     704:	90 40       	sbci	r25, 0x00	; 0
     706:	e1 f7       	brne	.-8      	; 0x700 <initLCD+0x18>
     708:	00 c0       	rjmp	.+0      	; 0x70a <initLCD+0x22>
     70a:	00 00       	nop
	_delay_ms(500);
	
	sendStartCondition();
     70c:	0e 94 4d 06 	call	0xc9a	; 0xc9a <sendStartCondition>
	
	if(sendByte(slaveAddress))
     710:	8c 2f       	mov	r24, r28
     712:	0e 94 ad 06 	call	0xd5a	; 0xd5a <sendByte>
     716:	88 23       	and	r24, r24
     718:	09 f4       	brne	.+2      	; 0x71c <initLCD+0x34>
     71a:	88 c0       	rjmp	.+272    	; 0x82c <initLCD+0x144>
	{
		savedSlaveAddress = slaveAddress;
     71c:	c0 93 0c 01 	sts	0x010C, r28	; 0x80010c <__data_end>
     720:	8f e5       	ldi	r24, 0x5F	; 95
     722:	9a ee       	ldi	r25, 0xEA	; 234
     724:	01 97       	sbiw	r24, 0x01	; 1
     726:	f1 f7       	brne	.-4      	; 0x724 <initLCD+0x3c>
     728:	00 c0       	rjmp	.+0      	; 0x72a <initLCD+0x42>
     72a:	00 00       	nop
		
		//Init LCD
		_delay_ms(15);
		sendByte(0b00110100);
     72c:	84 e3       	ldi	r24, 0x34	; 52
     72e:	0e 94 ad 06 	call	0xd5a	; 0xd5a <sendByte>
		sendByte(0b00110000);
     732:	80 e3       	ldi	r24, 0x30	; 48
     734:	0e 94 ad 06 	call	0xd5a	; 0xd5a <sendByte>
     738:	9f e7       	ldi	r25, 0x7F	; 127
     73a:	20 e0       	ldi	r18, 0x00	; 0
     73c:	82 e0       	ldi	r24, 0x02	; 2
     73e:	91 50       	subi	r25, 0x01	; 1
     740:	20 40       	sbci	r18, 0x00	; 0
     742:	80 40       	sbci	r24, 0x00	; 0
     744:	e1 f7       	brne	.-8      	; 0x73e <initLCD+0x56>
     746:	00 c0       	rjmp	.+0      	; 0x748 <initLCD+0x60>
     748:	00 00       	nop
		_delay_ms(41);
		sendByte(0b00110100);
     74a:	84 e3       	ldi	r24, 0x34	; 52
     74c:	0e 94 ad 06 	call	0xd5a	; 0xd5a <sendByte>
		sendByte(0b00110000);
     750:	80 e3       	ldi	r24, 0x30	; 48
     752:	0e 94 ad 06 	call	0xd5a	; 0xd5a <sendByte>
	#else
		//round up by default
		__ticks_dc = (uint32_t)(ceil(fabs(__tmp)));
	#endif

	__builtin_avr_delay_cycles(__ticks_dc);
     756:	8f e8       	ldi	r24, 0x8F	; 143
     758:	91 e0       	ldi	r25, 0x01	; 1
     75a:	01 97       	sbiw	r24, 0x01	; 1
     75c:	f1 f7       	brne	.-4      	; 0x75a <initLCD+0x72>
     75e:	00 c0       	rjmp	.+0      	; 0x760 <initLCD+0x78>
     760:	00 00       	nop
		_delay_us(100);
		sendByte(0b00110100);
     762:	84 e3       	ldi	r24, 0x34	; 52
     764:	0e 94 ad 06 	call	0xd5a	; 0xd5a <sendByte>
		sendByte(0b00110000);
     768:	80 e3       	ldi	r24, 0x30	; 48
     76a:	0e 94 ad 06 	call	0xd5a	; 0xd5a <sendByte>
	#else
		//round up by default
		__ticks_dc = (uint32_t)(ceil(fabs(__tmp)));
	#endif

	__builtin_avr_delay_cycles(__ticks_dc);
     76e:	9f e7       	ldi	r25, 0x7F	; 127
     770:	20 e0       	ldi	r18, 0x00	; 0
     772:	82 e0       	ldi	r24, 0x02	; 2
     774:	91 50       	subi	r25, 0x01	; 1
     776:	20 40       	sbci	r18, 0x00	; 0
     778:	80 40       	sbci	r24, 0x00	; 0
     77a:	e1 f7       	brne	.-8      	; 0x774 <initLCD+0x8c>
     77c:	00 c0       	rjmp	.+0      	; 0x77e <initLCD+0x96>
     77e:	00 00       	nop
		_delay_ms(41);
		sendByte(0b00100100);
     780:	84 e2       	ldi	r24, 0x24	; 36
     782:	0e 94 ad 06 	call	0xd5a	; 0xd5a <sendByte>
		sendByte(0b00100000);
     786:	80 e2       	ldi	r24, 0x20	; 32
     788:	0e 94 ad 06 	call	0xd5a	; 0xd5a <sendByte>
	#else
		//round up by default
		__ticks_dc = (uint32_t)(ceil(fabs(__tmp)));
	#endif

	__builtin_avr_delay_cycles(__ticks_dc);
     78c:	95 ed       	ldi	r25, 0xD5	; 213
     78e:	9a 95       	dec	r25
     790:	f1 f7       	brne	.-4      	; 0x78e <initLCD+0xa6>
     792:	00 00       	nop
		
		//Config
		_delay_us(40);
		sendByte(0b00100100);
     794:	84 e2       	ldi	r24, 0x24	; 36
     796:	0e 94 ad 06 	call	0xd5a	; 0xd5a <sendByte>
		sendByte(0b00100000);
     79a:	80 e2       	ldi	r24, 0x20	; 32
     79c:	0e 94 ad 06 	call	0xd5a	; 0xd5a <sendByte>
		sendByte(0b10000100);
     7a0:	84 e8       	ldi	r24, 0x84	; 132
     7a2:	0e 94 ad 06 	call	0xd5a	; 0xd5a <sendByte>
		sendByte(0b10000000);
     7a6:	80 e8       	ldi	r24, 0x80	; 128
     7a8:	0e 94 ad 06 	call	0xd5a	; 0xd5a <sendByte>
     7ac:	25 ed       	ldi	r18, 0xD5	; 213
     7ae:	2a 95       	dec	r18
     7b0:	f1 f7       	brne	.-4      	; 0x7ae <initLCD+0xc6>
     7b2:	00 00       	nop
		
		//Display off
		_delay_us(40);
		sendByte(0b00000100);
     7b4:	84 e0       	ldi	r24, 0x04	; 4
     7b6:	0e 94 ad 06 	call	0xd5a	; 0xd5a <sendByte>
		sendByte(0b00000000);
     7ba:	80 e0       	ldi	r24, 0x00	; 0
     7bc:	0e 94 ad 06 	call	0xd5a	; 0xd5a <sendByte>
		sendByte(0b10000100);
     7c0:	84 e8       	ldi	r24, 0x84	; 132
     7c2:	0e 94 ad 06 	call	0xd5a	; 0xd5a <sendByte>
		sendByte(0b10000000);
     7c6:	80 e8       	ldi	r24, 0x80	; 128
     7c8:	0e 94 ad 06 	call	0xd5a	; 0xd5a <sendByte>
     7cc:	85 ed       	ldi	r24, 0xD5	; 213
     7ce:	8a 95       	dec	r24
     7d0:	f1 f7       	brne	.-4      	; 0x7ce <initLCD+0xe6>
     7d2:	00 00       	nop
		
		//Display clear cursor home
		_delay_us(40);
		sendByte(0b00000100);
     7d4:	84 e0       	ldi	r24, 0x04	; 4
     7d6:	0e 94 ad 06 	call	0xd5a	; 0xd5a <sendByte>
		sendByte(0b00000000);
     7da:	80 e0       	ldi	r24, 0x00	; 0
     7dc:	0e 94 ad 06 	call	0xd5a	; 0xd5a <sendByte>
		sendByte(0b00010100);
     7e0:	84 e1       	ldi	r24, 0x14	; 20
     7e2:	0e 94 ad 06 	call	0xd5a	; 0xd5a <sendByte>
		sendByte(0b00010000);
     7e6:	80 e1       	ldi	r24, 0x10	; 16
     7e8:	0e 94 ad 06 	call	0xd5a	; 0xd5a <sendByte>
     7ec:	95 ed       	ldi	r25, 0xD5	; 213
     7ee:	9a 95       	dec	r25
     7f0:	f1 f7       	brne	.-4      	; 0x7ee <initLCD+0x106>
     7f2:	00 00       	nop
		
		//Set cursor direction
		_delay_us(40);
		sendByte(0b00000100);
     7f4:	84 e0       	ldi	r24, 0x04	; 4
     7f6:	0e 94 ad 06 	call	0xd5a	; 0xd5a <sendByte>
		sendByte(0b00000000);
     7fa:	80 e0       	ldi	r24, 0x00	; 0
     7fc:	0e 94 ad 06 	call	0xd5a	; 0xd5a <sendByte>
		sendByte(0b01100100);
     800:	84 e6       	ldi	r24, 0x64	; 100
     802:	0e 94 ad 06 	call	0xd5a	; 0xd5a <sendByte>
		sendByte(0b01100000);
     806:	80 e6       	ldi	r24, 0x60	; 96
     808:	0e 94 ad 06 	call	0xd5a	; 0xd5a <sendByte>
     80c:	25 ed       	ldi	r18, 0xD5	; 213
     80e:	2a 95       	dec	r18
     810:	f1 f7       	brne	.-4      	; 0x80e <initLCD+0x126>
     812:	00 00       	nop
		
		//Turn on display
		_delay_us(40);
		sendByte(0b00001100);
     814:	8c e0       	ldi	r24, 0x0C	; 12
     816:	0e 94 ad 06 	call	0xd5a	; 0xd5a <sendByte>
		sendByte(0b00001000);
     81a:	88 e0       	ldi	r24, 0x08	; 8
     81c:	0e 94 ad 06 	call	0xd5a	; 0xd5a <sendByte>
		sendByte(0b11101100);
     820:	8c ee       	ldi	r24, 0xEC	; 236
     822:	0e 94 ad 06 	call	0xd5a	; 0xd5a <sendByte>
		sendByte(0b11101000);
     826:	88 ee       	ldi	r24, 0xE8	; 232
     828:	0e 94 ad 06 	call	0xd5a	; 0xd5a <sendByte>
	}
	sendStopCondition();
     82c:	0e 94 7d 06 	call	0xcfa	; 0xcfa <sendStopCondition>
}
     830:	cf 91       	pop	r28
     832:	08 95       	ret

00000834 <sendCommand>:

/************************************************************************/
/* Sends a command as two nibbles to the LCD                            */
/************************************************************************/
void sendCommand(char command)
{
     834:	cf 93       	push	r28
     836:	df 93       	push	r29
     838:	c8 2f       	mov	r28, r24
	sendStartCondition();
     83a:	0e 94 4d 06 	call	0xc9a	; 0xc9a <sendStartCondition>
	sendByte(savedSlaveAddress);
     83e:	80 91 0c 01 	lds	r24, 0x010C	; 0x80010c <__data_end>
     842:	0e 94 ad 06 	call	0xd5a	; 0xd5a <sendByte>
     846:	85 ed       	ldi	r24, 0xD5	; 213
     848:	8a 95       	dec	r24
     84a:	f1 f7       	brne	.-4      	; 0x848 <sendCommand+0x14>
     84c:	00 00       	nop
	
	_delay_us(40);
	sendByte((0xF0 &command) | (0b00001100));
     84e:	dc 2f       	mov	r29, r28
     850:	d0 7f       	andi	r29, 0xF0	; 240
     852:	8d 2f       	mov	r24, r29
     854:	8c 60       	ori	r24, 0x0C	; 12
     856:	0e 94 ad 06 	call	0xd5a	; 0xd5a <sendByte>
	sendByte((0xF0 &command) | (0b00001000));
     85a:	8d 2f       	mov	r24, r29
     85c:	88 60       	ori	r24, 0x08	; 8
     85e:	0e 94 ad 06 	call	0xd5a	; 0xd5a <sendByte>
	sendByte(((0x0F &command)<<4) | (0b00001100));
     862:	80 e1       	ldi	r24, 0x10	; 16
     864:	c8 9f       	mul	r28, r24
     866:	e0 01       	movw	r28, r0
     868:	11 24       	eor	r1, r1
     86a:	8c 2f       	mov	r24, r28
     86c:	8c 60       	ori	r24, 0x0C	; 12
     86e:	0e 94 ad 06 	call	0xd5a	; 0xd5a <sendByte>
	sendByte(((0x0F &command)<<4) | (0b00001000));
     872:	8c 2f       	mov	r24, r28
     874:	88 60       	ori	r24, 0x08	; 8
     876:	0e 94 ad 06 	call	0xd5a	; 0xd5a <sendByte>
	
	sendStopCondition();
     87a:	0e 94 7d 06 	call	0xcfa	; 0xcfa <sendStopCondition>
}
     87e:	df 91       	pop	r29
     880:	cf 91       	pop	r28
     882:	08 95       	ret

00000884 <sendData>:

/************************************************************************/
/* Sends a byte of data as two nibbles to the LCD                       */
/************************************************************************/
void sendData(char command)
{
     884:	cf 93       	push	r28
     886:	df 93       	push	r29
     888:	c8 2f       	mov	r28, r24
	sendStartCondition();
     88a:	0e 94 4d 06 	call	0xc9a	; 0xc9a <sendStartCondition>
	sendByte(savedSlaveAddress);
     88e:	80 91 0c 01 	lds	r24, 0x010C	; 0x80010c <__data_end>
     892:	0e 94 ad 06 	call	0xd5a	; 0xd5a <sendByte>
     896:	85 ed       	ldi	r24, 0xD5	; 213
     898:	8a 95       	dec	r24
     89a:	f1 f7       	brne	.-4      	; 0x898 <sendData+0x14>
     89c:	00 00       	nop
	
	_delay_us(40);
	sendByte((0xF0 &command) | (0b00001101));
     89e:	dc 2f       	mov	r29, r28
     8a0:	d0 7f       	andi	r29, 0xF0	; 240
     8a2:	8d 2f       	mov	r24, r29
     8a4:	8d 60       	ori	r24, 0x0D	; 13
     8a6:	0e 94 ad 06 	call	0xd5a	; 0xd5a <sendByte>
	sendByte((0xF0 &command) | (0b00001001));
     8aa:	8d 2f       	mov	r24, r29
     8ac:	89 60       	ori	r24, 0x09	; 9
     8ae:	0e 94 ad 06 	call	0xd5a	; 0xd5a <sendByte>
	sendByte(((0x0F &command)<<4) | (0b00001101));
     8b2:	80 e1       	ldi	r24, 0x10	; 16
     8b4:	c8 9f       	mul	r28, r24
     8b6:	e0 01       	movw	r28, r0
     8b8:	11 24       	eor	r1, r1
     8ba:	8c 2f       	mov	r24, r28
     8bc:	8d 60       	ori	r24, 0x0D	; 13
     8be:	0e 94 ad 06 	call	0xd5a	; 0xd5a <sendByte>
	sendByte(((0x0F &command)<<4) | (0b00001001));
     8c2:	8c 2f       	mov	r24, r28
     8c4:	89 60       	ori	r24, 0x09	; 9
     8c6:	0e 94 ad 06 	call	0xd5a	; 0xd5a <sendByte>
	
	sendStopCondition();
     8ca:	0e 94 7d 06 	call	0xcfa	; 0xcfa <sendStopCondition>
}
     8ce:	df 91       	pop	r29
     8d0:	cf 91       	pop	r28
     8d2:	08 95       	ret

000008d4 <setCursor>:
/* col: 0 for first char												*/
/*		15 for last char												*/
/************************************************************************/
void setCursor(char row, char col)
{
	sendCommand((0x80+col)+(0x40*row));
     8d4:	60 58       	subi	r22, 0x80	; 128
     8d6:	90 e4       	ldi	r25, 0x40	; 64
     8d8:	89 9f       	mul	r24, r25
     8da:	60 0d       	add	r22, r0
     8dc:	11 24       	eor	r1, r1
     8de:	86 2f       	mov	r24, r22
     8e0:	0e 94 1a 04 	call	0x834	; 0x834 <sendCommand>
     8e4:	08 95       	ret

000008e6 <writeChar>:
/* Writes a given char on the LCD                                       */
/* The location can be specified with the setCursor() funtion			*/
/************************************************************************/
void writeChar(char character)
{
	sendData(character);
     8e6:	0e 94 42 04 	call	0x884	; 0x884 <sendData>
     8ea:	08 95       	ret

000008ec <writeString>:
/************************************************************************/
/* Writes a given char* (String) on the LCD                             */
/* The start location can be specified with the setCursor() funtion 	*/
/************************************************************************/
void writeString(char* character)
{
     8ec:	0f 93       	push	r16
     8ee:	1f 93       	push	r17
     8f0:	cf 93       	push	r28
     8f2:	fc 01       	movw	r30, r24
	unsigned char i = 0;
	while(character[i] != '\0')
     8f4:	80 81       	ld	r24, Z
     8f6:	88 23       	and	r24, r24
     8f8:	59 f0       	breq	.+22     	; 0x910 <__stack+0x11>
     8fa:	8f 01       	movw	r16, r30
     8fc:	c0 e0       	ldi	r28, 0x00	; 0
/* Writes a given char on the LCD                                       */
/* The location can be specified with the setCursor() funtion			*/
/************************************************************************/
void writeChar(char character)
{
	sendData(character);
     8fe:	0e 94 42 04 	call	0x884	; 0x884 <sendData>
{
	unsigned char i = 0;
	while(character[i] != '\0')
	{
		writeChar(character[i]);
		i++;
     902:	cf 5f       	subi	r28, 0xFF	; 255
/* The start location can be specified with the setCursor() funtion 	*/
/************************************************************************/
void writeString(char* character)
{
	unsigned char i = 0;
	while(character[i] != '\0')
     904:	f8 01       	movw	r30, r16
     906:	ec 0f       	add	r30, r28
     908:	f1 1d       	adc	r31, r1
     90a:	80 81       	ld	r24, Z
     90c:	81 11       	cpse	r24, r1
     90e:	f7 cf       	rjmp	.-18     	; 0x8fe <writeString+0x12>
	{
		writeChar(character[i]);
		i++;
	}
}
     910:	cf 91       	pop	r28
     912:	1f 91       	pop	r17
     914:	0f 91       	pop	r16
     916:	08 95       	ret

00000918 <initI2C>:
			SCL_LOW();
		}
	}
	
	return byte;
}
     918:	cf 93       	push	r28
     91a:	df 93       	push	r29
     91c:	00 d0       	rcall	.+0      	; 0x91e <initI2C+0x6>
     91e:	00 d0       	rcall	.+0      	; 0x920 <initI2C+0x8>
     920:	1f 92       	push	r1
     922:	cd b7       	in	r28, 0x3d	; 61
     924:	de b7       	in	r29, 0x3e	; 62
     926:	69 83       	std	Y+1, r22	; 0x01
     928:	7a 83       	std	Y+2, r23	; 0x02
     92a:	8b 83       	std	Y+3, r24	; 0x03
     92c:	9c 83       	std	Y+4, r25	; 0x04
     92e:	4d 83       	std	Y+5, r20	; 0x05
     930:	89 81       	ldd	r24, Y+1	; 0x01
     932:	9a 81       	ldd	r25, Y+2	; 0x02
     934:	ab 81       	ldd	r26, Y+3	; 0x03
     936:	bc 81       	ldd	r27, Y+4	; 0x04
     938:	80 93 00 01 	sts	0x0100, r24	; 0x800100 <__data_start>
     93c:	90 93 01 01 	sts	0x0101, r25	; 0x800101 <__data_start+0x1>
     940:	a0 93 02 01 	sts	0x0102, r26	; 0x800102 <__data_start+0x2>
     944:	b0 93 03 01 	sts	0x0103, r27	; 0x800103 <__data_start+0x3>
     948:	8d 81       	ldd	r24, Y+5	; 0x05
     94a:	80 93 04 01 	sts	0x0104, r24	; 0x800104 <delayunit>
     94e:	8a e2       	ldi	r24, 0x2A	; 42
     950:	90 e0       	ldi	r25, 0x00	; 0
     952:	2a e2       	ldi	r18, 0x2A	; 42
     954:	30 e0       	ldi	r19, 0x00	; 0
     956:	f9 01       	movw	r30, r18
     958:	20 81       	ld	r18, Z
     95a:	27 7f       	andi	r18, 0xF7	; 247
     95c:	fc 01       	movw	r30, r24
     95e:	20 83       	st	Z, r18
     960:	8a e2       	ldi	r24, 0x2A	; 42
     962:	90 e0       	ldi	r25, 0x00	; 0
     964:	2a e2       	ldi	r18, 0x2A	; 42
     966:	30 e0       	ldi	r19, 0x00	; 0
     968:	f9 01       	movw	r30, r18
     96a:	20 81       	ld	r18, Z
     96c:	2b 7f       	andi	r18, 0xFB	; 251
     96e:	fc 01       	movw	r30, r24
     970:	20 83       	st	Z, r18
     972:	00 00       	nop
     974:	0f 90       	pop	r0
     976:	0f 90       	pop	r0
     978:	0f 90       	pop	r0
     97a:	0f 90       	pop	r0
     97c:	0f 90       	pop	r0
     97e:	df 91       	pop	r29
     980:	cf 91       	pop	r28
     982:	08 95       	ret

00000984 <delay_I2C>:
     984:	cf 93       	push	r28
     986:	df 93       	push	r29
     988:	cd b7       	in	r28, 0x3d	; 61
     98a:	de b7       	in	r29, 0x3e	; 62
     98c:	ae 97       	sbiw	r28, 0x2e	; 46
     98e:	0f b6       	in	r0, 0x3f	; 63
     990:	f8 94       	cli
     992:	de bf       	out	0x3e, r29	; 62
     994:	0f be       	out	0x3f, r0	; 63
     996:	cd bf       	out	0x3d, r28	; 61
     998:	80 91 04 01 	lds	r24, 0x0104	; 0x800104 <delayunit>
     99c:	88 2f       	mov	r24, r24
     99e:	90 e0       	ldi	r25, 0x00	; 0
     9a0:	8d 36       	cpi	r24, 0x6D	; 109
     9a2:	91 05       	cpc	r25, r1
     9a4:	09 f4       	brne	.+2      	; 0x9a8 <delay_I2C+0x24>
     9a6:	f8 c0       	rjmp	.+496    	; 0xb98 <delay_I2C+0x214>
     9a8:	85 37       	cpi	r24, 0x75	; 117
     9aa:	91 05       	cpc	r25, r1
     9ac:	09 f0       	breq	.+2      	; 0x9b0 <delay_I2C+0x2c>
     9ae:	6b c1       	rjmp	.+726    	; 0xc86 <delay_I2C+0x302>
     9b0:	80 91 00 01 	lds	r24, 0x0100	; 0x800100 <__data_start>
     9b4:	90 91 01 01 	lds	r25, 0x0101	; 0x800101 <__data_start+0x1>
     9b8:	a0 91 02 01 	lds	r26, 0x0102	; 0x800102 <__data_start+0x2>
     9bc:	b0 91 03 01 	lds	r27, 0x0103	; 0x800103 <__data_start+0x3>
     9c0:	8d 83       	std	Y+5, r24	; 0x05
     9c2:	9e 83       	std	Y+6, r25	; 0x06
     9c4:	af 83       	std	Y+7, r26	; 0x07
     9c6:	b8 87       	std	Y+8, r27	; 0x08
     9c8:	2b ea       	ldi	r18, 0xAB	; 171
     9ca:	3a ea       	ldi	r19, 0xAA	; 170
     9cc:	4a ea       	ldi	r20, 0xAA	; 170
     9ce:	50 e4       	ldi	r21, 0x40	; 64
     9d0:	6d 81       	ldd	r22, Y+5	; 0x05
     9d2:	7e 81       	ldd	r23, Y+6	; 0x06
     9d4:	8f 81       	ldd	r24, Y+7	; 0x07
     9d6:	98 85       	ldd	r25, Y+8	; 0x08
     9d8:	0e 94 07 03 	call	0x60e	; 0x60e <__mulsf3>
     9dc:	dc 01       	movw	r26, r24
     9de:	cb 01       	movw	r24, r22
     9e0:	89 87       	std	Y+9, r24	; 0x09
     9e2:	9a 87       	std	Y+10, r25	; 0x0a
     9e4:	ab 87       	std	Y+11, r26	; 0x0b
     9e6:	bc 87       	std	Y+12, r27	; 0x0c
     9e8:	20 e0       	ldi	r18, 0x00	; 0
     9ea:	30 e0       	ldi	r19, 0x00	; 0
     9ec:	40 e8       	ldi	r20, 0x80	; 128
     9ee:	50 e4       	ldi	r21, 0x40	; 64
     9f0:	6d 81       	ldd	r22, Y+5	; 0x05
     9f2:	7e 81       	ldd	r23, Y+6	; 0x06
     9f4:	8f 81       	ldd	r24, Y+7	; 0x07
     9f6:	98 85       	ldd	r25, Y+8	; 0x08
     9f8:	0e 94 07 03 	call	0x60e	; 0x60e <__mulsf3>
     9fc:	dc 01       	movw	r26, r24
     9fe:	cb 01       	movw	r24, r22
     a00:	8d 87       	std	Y+13, r24	; 0x0d
     a02:	9e 87       	std	Y+14, r25	; 0x0e
     a04:	af 87       	std	Y+15, r26	; 0x0f
     a06:	b8 8b       	std	Y+16, r27	; 0x10
     a08:	20 e0       	ldi	r18, 0x00	; 0
     a0a:	30 e0       	ldi	r19, 0x00	; 0
     a0c:	40 e8       	ldi	r20, 0x80	; 128
     a0e:	5f e3       	ldi	r21, 0x3F	; 63
     a10:	69 85       	ldd	r22, Y+9	; 0x09
     a12:	7a 85       	ldd	r23, Y+10	; 0x0a
     a14:	8b 85       	ldd	r24, Y+11	; 0x0b
     a16:	9c 85       	ldd	r25, Y+12	; 0x0c
     a18:	0e 94 e7 01 	call	0x3ce	; 0x3ce <__cmpsf2>
     a1c:	88 23       	and	r24, r24
     a1e:	1c f4       	brge	.+6      	; 0xa26 <delay_I2C+0xa2>
     a20:	81 e0       	ldi	r24, 0x01	; 1
     a22:	89 8b       	std	Y+17, r24	; 0x11
     a24:	b2 c0       	rjmp	.+356    	; 0xb8a <delay_I2C+0x206>
     a26:	20 e0       	ldi	r18, 0x00	; 0
     a28:	3f ef       	ldi	r19, 0xFF	; 255
     a2a:	4f e7       	ldi	r20, 0x7F	; 127
     a2c:	57 e4       	ldi	r21, 0x47	; 71
     a2e:	6d 85       	ldd	r22, Y+13	; 0x0d
     a30:	7e 85       	ldd	r23, Y+14	; 0x0e
     a32:	8f 85       	ldd	r24, Y+15	; 0x0f
     a34:	98 89       	ldd	r25, Y+16	; 0x10
     a36:	0e 94 02 03 	call	0x604	; 0x604 <__gesf2>
     a3a:	18 16       	cp	r1, r24
     a3c:	0c f0       	brlt	.+2      	; 0xa40 <delay_I2C+0xbc>
     a3e:	7b c0       	rjmp	.+246    	; 0xb36 <delay_I2C+0x1b2>
     a40:	20 e0       	ldi	r18, 0x00	; 0
     a42:	30 e0       	ldi	r19, 0x00	; 0
     a44:	4a e7       	ldi	r20, 0x7A	; 122
     a46:	54 e4       	ldi	r21, 0x44	; 68
     a48:	6d 81       	ldd	r22, Y+5	; 0x05
     a4a:	7e 81       	ldd	r23, Y+6	; 0x06
     a4c:	8f 81       	ldd	r24, Y+7	; 0x07
     a4e:	98 85       	ldd	r25, Y+8	; 0x08
     a50:	0e 94 ec 01 	call	0x3d8	; 0x3d8 <__divsf3>
     a54:	dc 01       	movw	r26, r24
     a56:	cb 01       	movw	r24, r22
     a58:	8a 8b       	std	Y+18, r24	; 0x12
     a5a:	9b 8b       	std	Y+19, r25	; 0x13
     a5c:	ac 8b       	std	Y+20, r26	; 0x14
     a5e:	bd 8b       	std	Y+21, r27	; 0x15
     a60:	20 e0       	ldi	r18, 0x00	; 0
     a62:	30 e0       	ldi	r19, 0x00	; 0
     a64:	4a e7       	ldi	r20, 0x7A	; 122
     a66:	55 e4       	ldi	r21, 0x45	; 69
     a68:	6a 89       	ldd	r22, Y+18	; 0x12
     a6a:	7b 89       	ldd	r23, Y+19	; 0x13
     a6c:	8c 89       	ldd	r24, Y+20	; 0x14
     a6e:	9d 89       	ldd	r25, Y+21	; 0x15
     a70:	0e 94 07 03 	call	0x60e	; 0x60e <__mulsf3>
     a74:	dc 01       	movw	r26, r24
     a76:	cb 01       	movw	r24, r22
     a78:	8e 8b       	std	Y+22, r24	; 0x16
     a7a:	9f 8b       	std	Y+23, r25	; 0x17
     a7c:	a8 8f       	std	Y+24, r26	; 0x18
     a7e:	b9 8f       	std	Y+25, r27	; 0x19
     a80:	20 e0       	ldi	r18, 0x00	; 0
     a82:	30 e0       	ldi	r19, 0x00	; 0
     a84:	40 e8       	ldi	r20, 0x80	; 128
     a86:	5f e3       	ldi	r21, 0x3F	; 63
     a88:	6e 89       	ldd	r22, Y+22	; 0x16
     a8a:	7f 89       	ldd	r23, Y+23	; 0x17
     a8c:	88 8d       	ldd	r24, Y+24	; 0x18
     a8e:	99 8d       	ldd	r25, Y+25	; 0x19
     a90:	0e 94 e7 01 	call	0x3ce	; 0x3ce <__cmpsf2>
     a94:	88 23       	and	r24, r24
     a96:	2c f4       	brge	.+10     	; 0xaa2 <delay_I2C+0x11e>
     a98:	81 e0       	ldi	r24, 0x01	; 1
     a9a:	90 e0       	ldi	r25, 0x00	; 0
     a9c:	9b 8f       	std	Y+27, r25	; 0x1b
     a9e:	8a 8f       	std	Y+26, r24	; 0x1a
     aa0:	3f c0       	rjmp	.+126    	; 0xb20 <delay_I2C+0x19c>
     aa2:	20 e0       	ldi	r18, 0x00	; 0
     aa4:	3f ef       	ldi	r19, 0xFF	; 255
     aa6:	4f e7       	ldi	r20, 0x7F	; 127
     aa8:	57 e4       	ldi	r21, 0x47	; 71
     aaa:	6e 89       	ldd	r22, Y+22	; 0x16
     aac:	7f 89       	ldd	r23, Y+23	; 0x17
     aae:	88 8d       	ldd	r24, Y+24	; 0x18
     ab0:	99 8d       	ldd	r25, Y+25	; 0x19
     ab2:	0e 94 02 03 	call	0x604	; 0x604 <__gesf2>
     ab6:	18 16       	cp	r1, r24
     ab8:	4c f5       	brge	.+82     	; 0xb0c <delay_I2C+0x188>
     aba:	20 e0       	ldi	r18, 0x00	; 0
     abc:	30 e0       	ldi	r19, 0x00	; 0
     abe:	40 e2       	ldi	r20, 0x20	; 32
     ac0:	51 e4       	ldi	r21, 0x41	; 65
     ac2:	6a 89       	ldd	r22, Y+18	; 0x12
     ac4:	7b 89       	ldd	r23, Y+19	; 0x13
     ac6:	8c 89       	ldd	r24, Y+20	; 0x14
     ac8:	9d 89       	ldd	r25, Y+21	; 0x15
     aca:	0e 94 07 03 	call	0x60e	; 0x60e <__mulsf3>
     ace:	dc 01       	movw	r26, r24
     ad0:	cb 01       	movw	r24, r22
     ad2:	bc 01       	movw	r22, r24
     ad4:	cd 01       	movw	r24, r26
     ad6:	0e 94 5e 02 	call	0x4bc	; 0x4bc <__fixunssfsi>
     ada:	dc 01       	movw	r26, r24
     adc:	cb 01       	movw	r24, r22
     ade:	9b 8f       	std	Y+27, r25	; 0x1b
     ae0:	8a 8f       	std	Y+26, r24	; 0x1a
     ae2:	0f c0       	rjmp	.+30     	; 0xb02 <delay_I2C+0x17e>
     ae4:	80 e9       	ldi	r24, 0x90	; 144
     ae6:	91 e0       	ldi	r25, 0x01	; 1
     ae8:	9d 8f       	std	Y+29, r25	; 0x1d
     aea:	8c 8f       	std	Y+28, r24	; 0x1c
     aec:	8c 8d       	ldd	r24, Y+28	; 0x1c
     aee:	9d 8d       	ldd	r25, Y+29	; 0x1d
     af0:	01 97       	sbiw	r24, 0x01	; 1
     af2:	f1 f7       	brne	.-4      	; 0xaf0 <delay_I2C+0x16c>
     af4:	9d 8f       	std	Y+29, r25	; 0x1d
     af6:	8c 8f       	std	Y+28, r24	; 0x1c
     af8:	8a 8d       	ldd	r24, Y+26	; 0x1a
     afa:	9b 8d       	ldd	r25, Y+27	; 0x1b
     afc:	01 97       	sbiw	r24, 0x01	; 1
     afe:	9b 8f       	std	Y+27, r25	; 0x1b
     b00:	8a 8f       	std	Y+26, r24	; 0x1a
     b02:	8a 8d       	ldd	r24, Y+26	; 0x1a
     b04:	9b 8d       	ldd	r25, Y+27	; 0x1b
     b06:	89 2b       	or	r24, r25
     b08:	69 f7       	brne	.-38     	; 0xae4 <delay_I2C+0x160>
     b0a:	3f c0       	rjmp	.+126    	; 0xb8a <delay_I2C+0x206>
     b0c:	6e 89       	ldd	r22, Y+22	; 0x16
     b0e:	7f 89       	ldd	r23, Y+23	; 0x17
     b10:	88 8d       	ldd	r24, Y+24	; 0x18
     b12:	99 8d       	ldd	r25, Y+25	; 0x19
     b14:	0e 94 5e 02 	call	0x4bc	; 0x4bc <__fixunssfsi>
     b18:	dc 01       	movw	r26, r24
     b1a:	cb 01       	movw	r24, r22
     b1c:	9b 8f       	std	Y+27, r25	; 0x1b
     b1e:	8a 8f       	std	Y+26, r24	; 0x1a
     b20:	8a 8d       	ldd	r24, Y+26	; 0x1a
     b22:	9b 8d       	ldd	r25, Y+27	; 0x1b
     b24:	9f 8f       	std	Y+31, r25	; 0x1f
     b26:	8e 8f       	std	Y+30, r24	; 0x1e
     b28:	8e 8d       	ldd	r24, Y+30	; 0x1e
     b2a:	9f 8d       	ldd	r25, Y+31	; 0x1f
     b2c:	01 97       	sbiw	r24, 0x01	; 1
     b2e:	f1 f7       	brne	.-4      	; 0xb2c <delay_I2C+0x1a8>
     b30:	9f 8f       	std	Y+31, r25	; 0x1f
     b32:	8e 8f       	std	Y+30, r24	; 0x1e
     b34:	2a c0       	rjmp	.+84     	; 0xb8a <delay_I2C+0x206>
     b36:	20 e0       	ldi	r18, 0x00	; 0
     b38:	30 e0       	ldi	r19, 0x00	; 0
     b3a:	4f e7       	ldi	r20, 0x7F	; 127
     b3c:	53 e4       	ldi	r21, 0x43	; 67
     b3e:	69 85       	ldd	r22, Y+9	; 0x09
     b40:	7a 85       	ldd	r23, Y+10	; 0x0a
     b42:	8b 85       	ldd	r24, Y+11	; 0x0b
     b44:	9c 85       	ldd	r25, Y+12	; 0x0c
     b46:	0e 94 02 03 	call	0x604	; 0x604 <__gesf2>
     b4a:	18 16       	cp	r1, r24
     b4c:	ac f4       	brge	.+42     	; 0xb78 <delay_I2C+0x1f4>
     b4e:	6d 85       	ldd	r22, Y+13	; 0x0d
     b50:	7e 85       	ldd	r23, Y+14	; 0x0e
     b52:	8f 85       	ldd	r24, Y+15	; 0x0f
     b54:	98 89       	ldd	r25, Y+16	; 0x10
     b56:	0e 94 5e 02 	call	0x4bc	; 0x4bc <__fixunssfsi>
     b5a:	dc 01       	movw	r26, r24
     b5c:	cb 01       	movw	r24, r22
     b5e:	99 a3       	std	Y+33, r25	; 0x21
     b60:	88 a3       	std	Y+32, r24	; 0x20
     b62:	88 a1       	ldd	r24, Y+32	; 0x20
     b64:	99 a1       	ldd	r25, Y+33	; 0x21
     b66:	9b a3       	std	Y+35, r25	; 0x23
     b68:	8a a3       	std	Y+34, r24	; 0x22
     b6a:	8a a1       	ldd	r24, Y+34	; 0x22
     b6c:	9b a1       	ldd	r25, Y+35	; 0x23
     b6e:	01 97       	sbiw	r24, 0x01	; 1
     b70:	f1 f7       	brne	.-4      	; 0xb6e <delay_I2C+0x1ea>
     b72:	9b a3       	std	Y+35, r25	; 0x23
     b74:	8a a3       	std	Y+34, r24	; 0x22
     b76:	87 c0       	rjmp	.+270    	; 0xc86 <delay_I2C+0x302>
     b78:	69 85       	ldd	r22, Y+9	; 0x09
     b7a:	7a 85       	ldd	r23, Y+10	; 0x0a
     b7c:	8b 85       	ldd	r24, Y+11	; 0x0b
     b7e:	9c 85       	ldd	r25, Y+12	; 0x0c
     b80:	0e 94 5e 02 	call	0x4bc	; 0x4bc <__fixunssfsi>
     b84:	dc 01       	movw	r26, r24
     b86:	cb 01       	movw	r24, r22
     b88:	89 8b       	std	Y+17, r24	; 0x11
     b8a:	89 89       	ldd	r24, Y+17	; 0x11
     b8c:	8c a3       	std	Y+36, r24	; 0x24
     b8e:	8c a1       	ldd	r24, Y+36	; 0x24
     b90:	8a 95       	dec	r24
     b92:	f1 f7       	brne	.-4      	; 0xb90 <delay_I2C+0x20c>
     b94:	8c a3       	std	Y+36, r24	; 0x24
     b96:	77 c0       	rjmp	.+238    	; 0xc86 <delay_I2C+0x302>
     b98:	80 91 00 01 	lds	r24, 0x0100	; 0x800100 <__data_start>
     b9c:	90 91 01 01 	lds	r25, 0x0101	; 0x800101 <__data_start+0x1>
     ba0:	a0 91 02 01 	lds	r26, 0x0102	; 0x800102 <__data_start+0x2>
     ba4:	b0 91 03 01 	lds	r27, 0x0103	; 0x800103 <__data_start+0x3>
     ba8:	89 83       	std	Y+1, r24	; 0x01
     baa:	9a 83       	std	Y+2, r25	; 0x02
     bac:	ab 83       	std	Y+3, r26	; 0x03
     bae:	bc 83       	std	Y+4, r27	; 0x04
     bb0:	20 e0       	ldi	r18, 0x00	; 0
     bb2:	30 e0       	ldi	r19, 0x00	; 0
     bb4:	4a e7       	ldi	r20, 0x7A	; 122
     bb6:	55 e4       	ldi	r21, 0x45	; 69
     bb8:	69 81       	ldd	r22, Y+1	; 0x01
     bba:	7a 81       	ldd	r23, Y+2	; 0x02
     bbc:	8b 81       	ldd	r24, Y+3	; 0x03
     bbe:	9c 81       	ldd	r25, Y+4	; 0x04
     bc0:	0e 94 07 03 	call	0x60e	; 0x60e <__mulsf3>
     bc4:	dc 01       	movw	r26, r24
     bc6:	cb 01       	movw	r24, r22
     bc8:	8d a3       	std	Y+37, r24	; 0x25
     bca:	9e a3       	std	Y+38, r25	; 0x26
     bcc:	af a3       	std	Y+39, r26	; 0x27
     bce:	b8 a7       	std	Y+40, r27	; 0x28
     bd0:	20 e0       	ldi	r18, 0x00	; 0
     bd2:	30 e0       	ldi	r19, 0x00	; 0
     bd4:	40 e8       	ldi	r20, 0x80	; 128
     bd6:	5f e3       	ldi	r21, 0x3F	; 63
     bd8:	6d a1       	ldd	r22, Y+37	; 0x25
     bda:	7e a1       	ldd	r23, Y+38	; 0x26
     bdc:	8f a1       	ldd	r24, Y+39	; 0x27
     bde:	98 a5       	ldd	r25, Y+40	; 0x28
     be0:	0e 94 e7 01 	call	0x3ce	; 0x3ce <__cmpsf2>
     be4:	88 23       	and	r24, r24
     be6:	2c f4       	brge	.+10     	; 0xbf2 <delay_I2C+0x26e>
     be8:	81 e0       	ldi	r24, 0x01	; 1
     bea:	90 e0       	ldi	r25, 0x00	; 0
     bec:	9a a7       	std	Y+42, r25	; 0x2a
     bee:	89 a7       	std	Y+41, r24	; 0x29
     bf0:	3f c0       	rjmp	.+126    	; 0xc70 <delay_I2C+0x2ec>
     bf2:	20 e0       	ldi	r18, 0x00	; 0
     bf4:	3f ef       	ldi	r19, 0xFF	; 255
     bf6:	4f e7       	ldi	r20, 0x7F	; 127
     bf8:	57 e4       	ldi	r21, 0x47	; 71
     bfa:	6d a1       	ldd	r22, Y+37	; 0x25
     bfc:	7e a1       	ldd	r23, Y+38	; 0x26
     bfe:	8f a1       	ldd	r24, Y+39	; 0x27
     c00:	98 a5       	ldd	r25, Y+40	; 0x28
     c02:	0e 94 02 03 	call	0x604	; 0x604 <__gesf2>
     c06:	18 16       	cp	r1, r24
     c08:	4c f5       	brge	.+82     	; 0xc5c <delay_I2C+0x2d8>
     c0a:	20 e0       	ldi	r18, 0x00	; 0
     c0c:	30 e0       	ldi	r19, 0x00	; 0
     c0e:	40 e2       	ldi	r20, 0x20	; 32
     c10:	51 e4       	ldi	r21, 0x41	; 65
     c12:	69 81       	ldd	r22, Y+1	; 0x01
     c14:	7a 81       	ldd	r23, Y+2	; 0x02
     c16:	8b 81       	ldd	r24, Y+3	; 0x03
     c18:	9c 81       	ldd	r25, Y+4	; 0x04
     c1a:	0e 94 07 03 	call	0x60e	; 0x60e <__mulsf3>
     c1e:	dc 01       	movw	r26, r24
     c20:	cb 01       	movw	r24, r22
     c22:	bc 01       	movw	r22, r24
     c24:	cd 01       	movw	r24, r26
     c26:	0e 94 5e 02 	call	0x4bc	; 0x4bc <__fixunssfsi>
     c2a:	dc 01       	movw	r26, r24
     c2c:	cb 01       	movw	r24, r22
     c2e:	9a a7       	std	Y+42, r25	; 0x2a
     c30:	89 a7       	std	Y+41, r24	; 0x29
     c32:	0f c0       	rjmp	.+30     	; 0xc52 <delay_I2C+0x2ce>
     c34:	80 e9       	ldi	r24, 0x90	; 144
     c36:	91 e0       	ldi	r25, 0x01	; 1
     c38:	9c a7       	std	Y+44, r25	; 0x2c
     c3a:	8b a7       	std	Y+43, r24	; 0x2b
     c3c:	8b a5       	ldd	r24, Y+43	; 0x2b
     c3e:	9c a5       	ldd	r25, Y+44	; 0x2c
     c40:	01 97       	sbiw	r24, 0x01	; 1
     c42:	f1 f7       	brne	.-4      	; 0xc40 <delay_I2C+0x2bc>
     c44:	9c a7       	std	Y+44, r25	; 0x2c
     c46:	8b a7       	std	Y+43, r24	; 0x2b
     c48:	89 a5       	ldd	r24, Y+41	; 0x29
     c4a:	9a a5       	ldd	r25, Y+42	; 0x2a
     c4c:	01 97       	sbiw	r24, 0x01	; 1
     c4e:	9a a7       	std	Y+42, r25	; 0x2a
     c50:	89 a7       	std	Y+41, r24	; 0x29
     c52:	89 a5       	ldd	r24, Y+41	; 0x29
     c54:	9a a5       	ldd	r25, Y+42	; 0x2a
     c56:	89 2b       	or	r24, r25
     c58:	69 f7       	brne	.-38     	; 0xc34 <delay_I2C+0x2b0>
     c5a:	14 c0       	rjmp	.+40     	; 0xc84 <delay_I2C+0x300>
     c5c:	6d a1       	ldd	r22, Y+37	; 0x25
     c5e:	7e a1       	ldd	r23, Y+38	; 0x26
     c60:	8f a1       	ldd	r24, Y+39	; 0x27
     c62:	98 a5       	ldd	r25, Y+40	; 0x28
     c64:	0e 94 5e 02 	call	0x4bc	; 0x4bc <__fixunssfsi>
     c68:	dc 01       	movw	r26, r24
     c6a:	cb 01       	movw	r24, r22
     c6c:	9a a7       	std	Y+42, r25	; 0x2a
     c6e:	89 a7       	std	Y+41, r24	; 0x29
     c70:	89 a5       	ldd	r24, Y+41	; 0x29
     c72:	9a a5       	ldd	r25, Y+42	; 0x2a
     c74:	9e a7       	std	Y+46, r25	; 0x2e
     c76:	8d a7       	std	Y+45, r24	; 0x2d
     c78:	8d a5       	ldd	r24, Y+45	; 0x2d
     c7a:	9e a5       	ldd	r25, Y+46	; 0x2e
     c7c:	01 97       	sbiw	r24, 0x01	; 1
     c7e:	f1 f7       	brne	.-4      	; 0xc7c <delay_I2C+0x2f8>
     c80:	9e a7       	std	Y+46, r25	; 0x2e
     c82:	8d a7       	std	Y+45, r24	; 0x2d
     c84:	00 00       	nop
     c86:	00 00       	nop
     c88:	ae 96       	adiw	r28, 0x2e	; 46
     c8a:	0f b6       	in	r0, 0x3f	; 63
     c8c:	f8 94       	cli
     c8e:	de bf       	out	0x3e, r29	; 62
     c90:	0f be       	out	0x3f, r0	; 63
     c92:	cd bf       	out	0x3d, r28	; 61
     c94:	df 91       	pop	r29
     c96:	cf 91       	pop	r28
     c98:	08 95       	ret

00000c9a <sendStartCondition>:
     c9a:	cf 93       	push	r28
     c9c:	df 93       	push	r29
     c9e:	cd b7       	in	r28, 0x3d	; 61
     ca0:	de b7       	in	r29, 0x3e	; 62
     ca2:	8a e2       	ldi	r24, 0x2A	; 42
     ca4:	90 e0       	ldi	r25, 0x00	; 0
     ca6:	2a e2       	ldi	r18, 0x2A	; 42
     ca8:	30 e0       	ldi	r19, 0x00	; 0
     caa:	f9 01       	movw	r30, r18
     cac:	20 81       	ld	r18, Z
     cae:	27 7f       	andi	r18, 0xF7	; 247
     cb0:	fc 01       	movw	r30, r24
     cb2:	20 83       	st	Z, r18
     cb4:	8a e2       	ldi	r24, 0x2A	; 42
     cb6:	90 e0       	ldi	r25, 0x00	; 0
     cb8:	2a e2       	ldi	r18, 0x2A	; 42
     cba:	30 e0       	ldi	r19, 0x00	; 0
     cbc:	f9 01       	movw	r30, r18
     cbe:	20 81       	ld	r18, Z
     cc0:	2b 7f       	andi	r18, 0xFB	; 251
     cc2:	fc 01       	movw	r30, r24
     cc4:	20 83       	st	Z, r18
     cc6:	0e 94 c2 04 	call	0x984	; 0x984 <delay_I2C>
     cca:	8a e2       	ldi	r24, 0x2A	; 42
     ccc:	90 e0       	ldi	r25, 0x00	; 0
     cce:	2a e2       	ldi	r18, 0x2A	; 42
     cd0:	30 e0       	ldi	r19, 0x00	; 0
     cd2:	f9 01       	movw	r30, r18
     cd4:	20 81       	ld	r18, Z
     cd6:	24 60       	ori	r18, 0x04	; 4
     cd8:	fc 01       	movw	r30, r24
     cda:	20 83       	st	Z, r18
     cdc:	0e 94 c2 04 	call	0x984	; 0x984 <delay_I2C>
     ce0:	8a e2       	ldi	r24, 0x2A	; 42
     ce2:	90 e0       	ldi	r25, 0x00	; 0
     ce4:	2a e2       	ldi	r18, 0x2A	; 42
     ce6:	30 e0       	ldi	r19, 0x00	; 0
     ce8:	f9 01       	movw	r30, r18
     cea:	20 81       	ld	r18, Z
     cec:	28 60       	ori	r18, 0x08	; 8
     cee:	fc 01       	movw	r30, r24
     cf0:	20 83       	st	Z, r18
     cf2:	00 00       	nop
     cf4:	df 91       	pop	r29
     cf6:	cf 91       	pop	r28
     cf8:	08 95       	ret

00000cfa <sendStopCondition>:
     cfa:	cf 93       	push	r28
     cfc:	df 93       	push	r29
     cfe:	cd b7       	in	r28, 0x3d	; 61
     d00:	de b7       	in	r29, 0x3e	; 62
     d02:	8a e2       	ldi	r24, 0x2A	; 42
     d04:	90 e0       	ldi	r25, 0x00	; 0
     d06:	2a e2       	ldi	r18, 0x2A	; 42
     d08:	30 e0       	ldi	r19, 0x00	; 0
     d0a:	f9 01       	movw	r30, r18
     d0c:	20 81       	ld	r18, Z
     d0e:	28 60       	ori	r18, 0x08	; 8
     d10:	fc 01       	movw	r30, r24
     d12:	20 83       	st	Z, r18
     d14:	8a e2       	ldi	r24, 0x2A	; 42
     d16:	90 e0       	ldi	r25, 0x00	; 0
     d18:	2a e2       	ldi	r18, 0x2A	; 42
     d1a:	30 e0       	ldi	r19, 0x00	; 0
     d1c:	f9 01       	movw	r30, r18
     d1e:	20 81       	ld	r18, Z
     d20:	24 60       	ori	r18, 0x04	; 4
     d22:	fc 01       	movw	r30, r24
     d24:	20 83       	st	Z, r18
     d26:	0e 94 c2 04 	call	0x984	; 0x984 <delay_I2C>
     d2a:	8a e2       	ldi	r24, 0x2A	; 42
     d2c:	90 e0       	ldi	r25, 0x00	; 0
     d2e:	2a e2       	ldi	r18, 0x2A	; 42
     d30:	30 e0       	ldi	r19, 0x00	; 0
     d32:	f9 01       	movw	r30, r18
     d34:	20 81       	ld	r18, Z
     d36:	27 7f       	andi	r18, 0xF7	; 247
     d38:	fc 01       	movw	r30, r24
     d3a:	20 83       	st	Z, r18
     d3c:	0e 94 c2 04 	call	0x984	; 0x984 <delay_I2C>
     d40:	8a e2       	ldi	r24, 0x2A	; 42
     d42:	90 e0       	ldi	r25, 0x00	; 0
     d44:	2a e2       	ldi	r18, 0x2A	; 42
     d46:	30 e0       	ldi	r19, 0x00	; 0
     d48:	f9 01       	movw	r30, r18
     d4a:	20 81       	ld	r18, Z
     d4c:	2b 7f       	andi	r18, 0xFB	; 251
     d4e:	fc 01       	movw	r30, r24
     d50:	20 83       	st	Z, r18
     d52:	00 00       	nop
     d54:	df 91       	pop	r29
     d56:	cf 91       	pop	r28
     d58:	08 95       	ret

00000d5a <sendByte>:
     d5a:	cf 93       	push	r28
     d5c:	df 93       	push	r29
     d5e:	00 d0       	rcall	.+0      	; 0xd60 <sendByte+0x6>
     d60:	00 d0       	rcall	.+0      	; 0xd62 <sendByte+0x8>
     d62:	cd b7       	in	r28, 0x3d	; 61
     d64:	de b7       	in	r29, 0x3e	; 62
     d66:	8c 83       	std	Y+4, r24	; 0x04
     d68:	8a e2       	ldi	r24, 0x2A	; 42
     d6a:	90 e0       	ldi	r25, 0x00	; 0
     d6c:	2a e2       	ldi	r18, 0x2A	; 42
     d6e:	30 e0       	ldi	r19, 0x00	; 0
     d70:	f9 01       	movw	r30, r18
     d72:	20 81       	ld	r18, Z
     d74:	28 60       	ori	r18, 0x08	; 8
     d76:	fc 01       	movw	r30, r24
     d78:	20 83       	st	Z, r18
     d7a:	1a 82       	std	Y+2, r1	; 0x02
     d7c:	19 82       	std	Y+1, r1	; 0x01
     d7e:	2f c0       	rjmp	.+94     	; 0xdde <sendByte+0x84>
     d80:	0e 94 c2 04 	call	0x984	; 0x984 <delay_I2C>
     d84:	8c 81       	ldd	r24, Y+4	; 0x04
     d86:	88 1f       	adc	r24, r24
     d88:	88 27       	eor	r24, r24
     d8a:	88 1f       	adc	r24, r24
     d8c:	0e 94 ad 07 	call	0xf5a	; 0xf5a <sendBit>
     d90:	8c 81       	ldd	r24, Y+4	; 0x04
     d92:	88 0f       	add	r24, r24
     d94:	8c 83       	std	Y+4, r24	; 0x04
     d96:	0e 94 c2 04 	call	0x984	; 0x984 <delay_I2C>
     d9a:	8a e2       	ldi	r24, 0x2A	; 42
     d9c:	90 e0       	ldi	r25, 0x00	; 0
     d9e:	2a e2       	ldi	r18, 0x2A	; 42
     da0:	30 e0       	ldi	r19, 0x00	; 0
     da2:	f9 01       	movw	r30, r18
     da4:	20 81       	ld	r18, Z
     da6:	27 7f       	andi	r18, 0xF7	; 247
     da8:	fc 01       	movw	r30, r24
     daa:	20 83       	st	Z, r18
     dac:	0e 94 c2 04 	call	0x984	; 0x984 <delay_I2C>
     db0:	8a e2       	ldi	r24, 0x2A	; 42
     db2:	90 e0       	ldi	r25, 0x00	; 0
     db4:	2a e2       	ldi	r18, 0x2A	; 42
     db6:	30 e0       	ldi	r19, 0x00	; 0
     db8:	f9 01       	movw	r30, r18
     dba:	20 81       	ld	r18, Z
     dbc:	28 60       	ori	r18, 0x08	; 8
     dbe:	fc 01       	movw	r30, r24
     dc0:	20 83       	st	Z, r18
     dc2:	8a e2       	ldi	r24, 0x2A	; 42
     dc4:	90 e0       	ldi	r25, 0x00	; 0
     dc6:	2a e2       	ldi	r18, 0x2A	; 42
     dc8:	30 e0       	ldi	r19, 0x00	; 0
     dca:	f9 01       	movw	r30, r18
     dcc:	20 81       	ld	r18, Z
     dce:	24 60       	ori	r18, 0x04	; 4
     dd0:	fc 01       	movw	r30, r24
     dd2:	20 83       	st	Z, r18
     dd4:	89 81       	ldd	r24, Y+1	; 0x01
     dd6:	9a 81       	ldd	r25, Y+2	; 0x02
     dd8:	01 96       	adiw	r24, 0x01	; 1
     dda:	9a 83       	std	Y+2, r25	; 0x02
     ddc:	89 83       	std	Y+1, r24	; 0x01
     dde:	89 81       	ldd	r24, Y+1	; 0x01
     de0:	9a 81       	ldd	r25, Y+2	; 0x02
     de2:	08 97       	sbiw	r24, 0x08	; 8
     de4:	6c f2       	brlt	.-102    	; 0xd80 <sendByte+0x26>
     de6:	8a e2       	ldi	r24, 0x2A	; 42
     de8:	90 e0       	ldi	r25, 0x00	; 0
     dea:	2a e2       	ldi	r18, 0x2A	; 42
     dec:	30 e0       	ldi	r19, 0x00	; 0
     dee:	f9 01       	movw	r30, r18
     df0:	20 81       	ld	r18, Z
     df2:	2b 7f       	andi	r18, 0xFB	; 251
     df4:	fc 01       	movw	r30, r24
     df6:	20 83       	st	Z, r18
     df8:	0e 94 c2 04 	call	0x984	; 0x984 <delay_I2C>
     dfc:	8a e2       	ldi	r24, 0x2A	; 42
     dfe:	90 e0       	ldi	r25, 0x00	; 0
     e00:	2a e2       	ldi	r18, 0x2A	; 42
     e02:	30 e0       	ldi	r19, 0x00	; 0
     e04:	f9 01       	movw	r30, r18
     e06:	20 81       	ld	r18, Z
     e08:	27 7f       	andi	r18, 0xF7	; 247
     e0a:	fc 01       	movw	r30, r24
     e0c:	20 83       	st	Z, r18
     e0e:	0e 94 c2 04 	call	0x984	; 0x984 <delay_I2C>
     e12:	1b 82       	std	Y+3, r1	; 0x03
     e14:	89 e2       	ldi	r24, 0x29	; 41
     e16:	90 e0       	ldi	r25, 0x00	; 0
     e18:	fc 01       	movw	r30, r24
     e1a:	80 81       	ld	r24, Z
     e1c:	88 2f       	mov	r24, r24
     e1e:	90 e0       	ldi	r25, 0x00	; 0
     e20:	84 70       	andi	r24, 0x04	; 4
     e22:	99 27       	eor	r25, r25
     e24:	89 2b       	or	r24, r25
     e26:	11 f4       	brne	.+4      	; 0xe2c <sendByte+0xd2>
     e28:	81 e0       	ldi	r24, 0x01	; 1
     e2a:	8b 83       	std	Y+3, r24	; 0x03
     e2c:	8a e2       	ldi	r24, 0x2A	; 42
     e2e:	90 e0       	ldi	r25, 0x00	; 0
     e30:	2a e2       	ldi	r18, 0x2A	; 42
     e32:	30 e0       	ldi	r19, 0x00	; 0
     e34:	f9 01       	movw	r30, r18
     e36:	20 81       	ld	r18, Z
     e38:	28 60       	ori	r18, 0x08	; 8
     e3a:	fc 01       	movw	r30, r24
     e3c:	20 83       	st	Z, r18
     e3e:	0e 94 c2 04 	call	0x984	; 0x984 <delay_I2C>
     e42:	8b 81       	ldd	r24, Y+3	; 0x03
     e44:	0f 90       	pop	r0
     e46:	0f 90       	pop	r0
     e48:	0f 90       	pop	r0
     e4a:	0f 90       	pop	r0
     e4c:	df 91       	pop	r29
     e4e:	cf 91       	pop	r28
     e50:	08 95       	ret

00000e52 <readRegister>:

unsigned char readRegister(unsigned char slaveAddress, unsigned char registerAddress)
{
     e52:	cf 93       	push	r28
     e54:	df 93       	push	r29
     e56:	cd b7       	in	r28, 0x3d	; 61
     e58:	de b7       	in	r29, 0x3e	; 62
     e5a:	27 97       	sbiw	r28, 0x07	; 7
     e5c:	0f b6       	in	r0, 0x3f	; 63
     e5e:	f8 94       	cli
     e60:	de bf       	out	0x3e, r29	; 62
     e62:	0f be       	out	0x3f, r0	; 63
     e64:	cd bf       	out	0x3d, r28	; 61
     e66:	8e 83       	std	Y+6, r24	; 0x06
     e68:	6f 83       	std	Y+7, r22	; 0x07
	unsigned char byte = 0b00000000;
     e6a:	19 82       	std	Y+1, r1	; 0x01
	
	//force write mode
	unsigned char slaveAddressW = slaveAddress & 0b11111110;
     e6c:	8e 81       	ldd	r24, Y+6	; 0x06
     e6e:	8e 7f       	andi	r24, 0xFE	; 254
     e70:	8c 83       	std	Y+4, r24	; 0x04
	
	//force read mode
	unsigned char slaveAddressR = slaveAddress | 0b00000001;
     e72:	8e 81       	ldd	r24, Y+6	; 0x06
     e74:	81 60       	ori	r24, 0x01	; 1
     e76:	8d 83       	std	Y+5, r24	; 0x05
	
	SCL_LOW();
     e78:	8a e2       	ldi	r24, 0x2A	; 42
     e7a:	90 e0       	ldi	r25, 0x00	; 0
     e7c:	2a e2       	ldi	r18, 0x2A	; 42
     e7e:	30 e0       	ldi	r19, 0x00	; 0
     e80:	f9 01       	movw	r30, r18
     e82:	20 81       	ld	r18, Z
     e84:	28 60       	ori	r18, 0x08	; 8
     e86:	fc 01       	movw	r30, r24
     e88:	20 83       	st	Z, r18
	
	//choose register
	sendStartCondition();
     e8a:	0e 94 4d 06 	call	0xc9a	; 0xc9a <sendStartCondition>
	sendByte(slaveAddressW);
     e8e:	8c 81       	ldd	r24, Y+4	; 0x04
     e90:	0e 94 ad 06 	call	0xd5a	; 0xd5a <sendByte>
	sendByte(registerAddress);
     e94:	8f 81       	ldd	r24, Y+7	; 0x07
     e96:	0e 94 ad 06 	call	0xd5a	; 0xd5a <sendByte>
	
	// establish new connection
	sendStartCondition();
     e9a:	0e 94 4d 06 	call	0xc9a	; 0xc9a <sendStartCondition>
	
	// get register from slave
	if(sendByte(slaveAddressR))
     e9e:	8d 81       	ldd	r24, Y+5	; 0x05
     ea0:	0e 94 ad 06 	call	0xd5a	; 0xd5a <sendByte>
     ea4:	88 23       	and	r24, r24
     ea6:	09 f4       	brne	.+2      	; 0xeaa <readRegister+0x58>
     ea8:	4e c0       	rjmp	.+156    	; 0xf46 <readRegister+0xf4>
	{
		SCL_LOW();
     eaa:	8a e2       	ldi	r24, 0x2A	; 42
     eac:	90 e0       	ldi	r25, 0x00	; 0
     eae:	2a e2       	ldi	r18, 0x2A	; 42
     eb0:	30 e0       	ldi	r19, 0x00	; 0
     eb2:	f9 01       	movw	r30, r18
     eb4:	20 81       	ld	r18, Z
     eb6:	28 60       	ori	r18, 0x08	; 8
     eb8:	fc 01       	movw	r30, r24
     eba:	20 83       	st	Z, r18
		SDA_HIGH();
     ebc:	8a e2       	ldi	r24, 0x2A	; 42
     ebe:	90 e0       	ldi	r25, 0x00	; 0
     ec0:	2a e2       	ldi	r18, 0x2A	; 42
     ec2:	30 e0       	ldi	r19, 0x00	; 0
     ec4:	f9 01       	movw	r30, r18
     ec6:	20 81       	ld	r18, Z
     ec8:	2b 7f       	andi	r18, 0xFB	; 251
     eca:	fc 01       	movw	r30, r24
     ecc:	20 83       	st	Z, r18
		
		// read byte from slave
		for(int i = 7; i >= 0; i--)
     ece:	87 e0       	ldi	r24, 0x07	; 7
     ed0:	90 e0       	ldi	r25, 0x00	; 0
     ed2:	9b 83       	std	Y+3, r25	; 0x03
     ed4:	8a 83       	std	Y+2, r24	; 0x02
     ed6:	33 c0       	rjmp	.+102    	; 0xf3e <readRegister+0xec>
		{
			delay_I2C();
     ed8:	0e 94 c2 04 	call	0x984	; 0x984 <delay_I2C>
			
			SCL_HIGH();
     edc:	8a e2       	ldi	r24, 0x2A	; 42
     ede:	90 e0       	ldi	r25, 0x00	; 0
     ee0:	2a e2       	ldi	r18, 0x2A	; 42
     ee2:	30 e0       	ldi	r19, 0x00	; 0
     ee4:	f9 01       	movw	r30, r18
     ee6:	20 81       	ld	r18, Z
     ee8:	27 7f       	andi	r18, 0xF7	; 247
     eea:	fc 01       	movw	r30, r24
     eec:	20 83       	st	Z, r18
			
			delay_I2C();
     eee:	0e 94 c2 04 	call	0x984	; 0x984 <delay_I2C>
			
			byte |= (SDA_READ() << i);
     ef2:	89 e2       	ldi	r24, 0x29	; 41
     ef4:	90 e0       	ldi	r25, 0x00	; 0
     ef6:	fc 01       	movw	r30, r24
     ef8:	80 81       	ld	r24, Z
     efa:	88 2f       	mov	r24, r24
     efc:	90 e0       	ldi	r25, 0x00	; 0
     efe:	84 70       	andi	r24, 0x04	; 4
     f00:	99 27       	eor	r25, r25
     f02:	21 e0       	ldi	r18, 0x01	; 1
     f04:	89 2b       	or	r24, r25
     f06:	09 f4       	brne	.+2      	; 0xf0a <readRegister+0xb8>
     f08:	20 e0       	ldi	r18, 0x00	; 0
     f0a:	82 2f       	mov	r24, r18
     f0c:	90 e0       	ldi	r25, 0x00	; 0
     f0e:	0a 80       	ldd	r0, Y+2	; 0x02
     f10:	02 c0       	rjmp	.+4      	; 0xf16 <readRegister+0xc4>
     f12:	88 0f       	add	r24, r24
     f14:	99 1f       	adc	r25, r25
     f16:	0a 94       	dec	r0
     f18:	e2 f7       	brpl	.-8      	; 0xf12 <readRegister+0xc0>
     f1a:	98 2f       	mov	r25, r24
     f1c:	89 81       	ldd	r24, Y+1	; 0x01
     f1e:	89 2b       	or	r24, r25
     f20:	89 83       	std	Y+1, r24	; 0x01
			
			SCL_LOW();
     f22:	8a e2       	ldi	r24, 0x2A	; 42
     f24:	90 e0       	ldi	r25, 0x00	; 0
     f26:	2a e2       	ldi	r18, 0x2A	; 42
     f28:	30 e0       	ldi	r19, 0x00	; 0
     f2a:	f9 01       	movw	r30, r18
     f2c:	20 81       	ld	r18, Z
     f2e:	28 60       	ori	r18, 0x08	; 8
     f30:	fc 01       	movw	r30, r24
     f32:	20 83       	st	Z, r18
	{
		SCL_LOW();
		SDA_HIGH();
		
		// read byte from slave
		for(int i = 7; i >= 0; i--)
     f34:	8a 81       	ldd	r24, Y+2	; 0x02
     f36:	9b 81       	ldd	r25, Y+3	; 0x03
     f38:	01 97       	sbiw	r24, 0x01	; 1
     f3a:	9b 83       	std	Y+3, r25	; 0x03
     f3c:	8a 83       	std	Y+2, r24	; 0x02
     f3e:	8a 81       	ldd	r24, Y+2	; 0x02
     f40:	9b 81       	ldd	r25, Y+3	; 0x03
     f42:	99 23       	and	r25, r25
     f44:	4c f6       	brge	.-110    	; 0xed8 <readRegister+0x86>
			
			SCL_LOW();
		}
	}
	
	return byte;
     f46:	89 81       	ldd	r24, Y+1	; 0x01
}
     f48:	27 96       	adiw	r28, 0x07	; 7
     f4a:	0f b6       	in	r0, 0x3f	; 63
     f4c:	f8 94       	cli
     f4e:	de bf       	out	0x3e, r29	; 62
     f50:	0f be       	out	0x3f, r0	; 63
     f52:	cd bf       	out	0x3d, r28	; 61
     f54:	df 91       	pop	r29
     f56:	cf 91       	pop	r28
     f58:	08 95       	ret

00000f5a <sendBit>:

void sendBit(char bit)
{
     f5a:	cf 93       	push	r28
     f5c:	df 93       	push	r29
     f5e:	1f 92       	push	r1
     f60:	cd b7       	in	r28, 0x3d	; 61
     f62:	de b7       	in	r29, 0x3e	; 62
     f64:	89 83       	std	Y+1, r24	; 0x01
	if(bit == 0)
     f66:	89 81       	ldd	r24, Y+1	; 0x01
     f68:	88 23       	and	r24, r24
     f6a:	51 f4       	brne	.+20     	; 0xf80 <sendBit+0x26>
	{
		SDA_LOW();
     f6c:	8a e2       	ldi	r24, 0x2A	; 42
     f6e:	90 e0       	ldi	r25, 0x00	; 0
     f70:	2a e2       	ldi	r18, 0x2A	; 42
     f72:	30 e0       	ldi	r19, 0x00	; 0
     f74:	f9 01       	movw	r30, r18
     f76:	20 81       	ld	r18, Z
     f78:	24 60       	ori	r18, 0x04	; 4
     f7a:	fc 01       	movw	r30, r24
     f7c:	20 83       	st	Z, r18
	}
	else if (bit == 1)
	{
		SDA_HIGH();
	}
     f7e:	0c c0       	rjmp	.+24     	; 0xf98 <sendBit+0x3e>
{
	if(bit == 0)
	{
		SDA_LOW();
	}
	else if (bit == 1)
     f80:	89 81       	ldd	r24, Y+1	; 0x01
     f82:	81 30       	cpi	r24, 0x01	; 1
     f84:	49 f4       	brne	.+18     	; 0xf98 <sendBit+0x3e>
	{
		SDA_HIGH();
     f86:	8a e2       	ldi	r24, 0x2A	; 42
     f88:	90 e0       	ldi	r25, 0x00	; 0
     f8a:	2a e2       	ldi	r18, 0x2A	; 42
     f8c:	30 e0       	ldi	r19, 0x00	; 0
     f8e:	f9 01       	movw	r30, r18
     f90:	20 81       	ld	r18, Z
     f92:	2b 7f       	andi	r18, 0xFB	; 251
     f94:	fc 01       	movw	r30, r24
     f96:	20 83       	st	Z, r18
	}
     f98:	00 00       	nop
     f9a:	0f 90       	pop	r0
     f9c:	df 91       	pop	r29
     f9e:	cf 91       	pop	r28
     fa0:	08 95       	ret

00000fa2 <BME280_init>:
}

void BME280_soft_reset()
{
	writeToRegister(0xE0, 0xB6);
}
     fa2:	cf 93       	push	r28
     fa4:	df 93       	push	r29
     fa6:	1f 92       	push	r1
     fa8:	cd b7       	in	r28, 0x3d	; 61
     faa:	de b7       	in	r29, 0x3e	; 62
     fac:	89 83       	std	Y+1, r24	; 0x01
     fae:	89 81       	ldd	r24, Y+1	; 0x01
     fb0:	81 60       	ori	r24, 0x01	; 1
     fb2:	80 93 0d 01 	sts	0x010D, r24	; 0x80010d <slaveAddressR>
     fb6:	89 81       	ldd	r24, Y+1	; 0x01
     fb8:	8e 7f       	andi	r24, 0xFE	; 254
     fba:	80 93 0e 01 	sts	0x010E, r24	; 0x80010e <slaveAddressW>
     fbe:	00 00       	nop
     fc0:	0f 90       	pop	r0
     fc2:	df 91       	pop	r29
     fc4:	cf 91       	pop	r28
     fc6:	08 95       	ret

00000fc8 <BME280_set_standby_time>:
     fc8:	cf 93       	push	r28
     fca:	df 93       	push	r29
     fcc:	00 d0       	rcall	.+0      	; 0xfce <BME280_set_standby_time+0x6>
     fce:	00 d0       	rcall	.+0      	; 0xfd0 <BME280_set_standby_time+0x8>
     fd0:	cd b7       	in	r28, 0x3d	; 61
     fd2:	de b7       	in	r29, 0x3e	; 62
     fd4:	8c 83       	std	Y+4, r24	; 0x04
     fd6:	0e 94 d4 08 	call	0x11a8	; 0x11a8 <BME280_get_mode>
     fda:	89 83       	std	Y+1, r24	; 0x01
     fdc:	85 ef       	ldi	r24, 0xF5	; 245
     fde:	0e 94 ad 11 	call	0x235a	; 0x235a <readFromRegister>
     fe2:	8a 83       	std	Y+2, r24	; 0x02
     fe4:	0e 94 c0 08 	call	0x1180	; 0x1180 <BME280_set_sleep_mode>
     fe8:	8a 81       	ldd	r24, Y+2	; 0x02
     fea:	98 2f       	mov	r25, r24
     fec:	9f 71       	andi	r25, 0x1F	; 31
     fee:	8c 81       	ldd	r24, Y+4	; 0x04
     ff0:	89 2b       	or	r24, r25
     ff2:	68 2f       	mov	r22, r24
     ff4:	85 ef       	ldi	r24, 0xF5	; 245
     ff6:	0e 94 87 11 	call	0x230e	; 0x230e <writeToRegister>
     ffa:	8b 83       	std	Y+3, r24	; 0x03
     ffc:	89 81       	ldd	r24, Y+1	; 0x01
     ffe:	0e 94 a8 08 	call	0x1150	; 0x1150 <BME280_set_mode>
    1002:	8b 81       	ldd	r24, Y+3	; 0x03
    1004:	0f 90       	pop	r0
    1006:	0f 90       	pop	r0
    1008:	0f 90       	pop	r0
    100a:	0f 90       	pop	r0
    100c:	df 91       	pop	r29
    100e:	cf 91       	pop	r28
    1010:	08 95       	ret

00001012 <BME280_set_standby_time_62_5>:
    1012:	cf 93       	push	r28
    1014:	df 93       	push	r29
    1016:	cd b7       	in	r28, 0x3d	; 61
    1018:	de b7       	in	r29, 0x3e	; 62
    101a:	80 e2       	ldi	r24, 0x20	; 32
    101c:	0e 94 e4 07 	call	0xfc8	; 0xfc8 <BME280_set_standby_time>
    1020:	df 91       	pop	r29
    1022:	cf 91       	pop	r28
    1024:	08 95       	ret

00001026 <BME280_set_temperature_oversampling>:
    1026:	cf 93       	push	r28
    1028:	df 93       	push	r29
    102a:	00 d0       	rcall	.+0      	; 0x102c <BME280_set_temperature_oversampling+0x6>
    102c:	cd b7       	in	r28, 0x3d	; 61
    102e:	de b7       	in	r29, 0x3e	; 62
    1030:	8a 83       	std	Y+2, r24	; 0x02
    1032:	84 ef       	ldi	r24, 0xF4	; 244
    1034:	0e 94 ad 11 	call	0x235a	; 0x235a <readFromRegister>
    1038:	89 83       	std	Y+1, r24	; 0x01
    103a:	89 81       	ldd	r24, Y+1	; 0x01
    103c:	98 2f       	mov	r25, r24
    103e:	9f 71       	andi	r25, 0x1F	; 31
    1040:	8a 81       	ldd	r24, Y+2	; 0x02
    1042:	89 2b       	or	r24, r25
    1044:	68 2f       	mov	r22, r24
    1046:	84 ef       	ldi	r24, 0xF4	; 244
    1048:	0e 94 87 11 	call	0x230e	; 0x230e <writeToRegister>
    104c:	0f 90       	pop	r0
    104e:	0f 90       	pop	r0
    1050:	df 91       	pop	r29
    1052:	cf 91       	pop	r28
    1054:	08 95       	ret

00001056 <BME280_set_temperature_oversampling_1>:
    1056:	cf 93       	push	r28
    1058:	df 93       	push	r29
    105a:	cd b7       	in	r28, 0x3d	; 61
    105c:	de b7       	in	r29, 0x3e	; 62
    105e:	80 e2       	ldi	r24, 0x20	; 32
    1060:	0e 94 13 08 	call	0x1026	; 0x1026 <BME280_set_temperature_oversampling>
    1064:	df 91       	pop	r29
    1066:	cf 91       	pop	r28
    1068:	08 95       	ret

0000106a <BME280_set_pressure_oversampling>:
    106a:	cf 93       	push	r28
    106c:	df 93       	push	r29
    106e:	00 d0       	rcall	.+0      	; 0x1070 <BME280_set_pressure_oversampling+0x6>
    1070:	cd b7       	in	r28, 0x3d	; 61
    1072:	de b7       	in	r29, 0x3e	; 62
    1074:	8a 83       	std	Y+2, r24	; 0x02
    1076:	84 ef       	ldi	r24, 0xF4	; 244
    1078:	0e 94 ad 11 	call	0x235a	; 0x235a <readFromRegister>
    107c:	89 83       	std	Y+1, r24	; 0x01
    107e:	89 81       	ldd	r24, Y+1	; 0x01
    1080:	98 2f       	mov	r25, r24
    1082:	93 7e       	andi	r25, 0xE3	; 227
    1084:	8a 81       	ldd	r24, Y+2	; 0x02
    1086:	89 2b       	or	r24, r25
    1088:	68 2f       	mov	r22, r24
    108a:	84 ef       	ldi	r24, 0xF4	; 244
    108c:	0e 94 87 11 	call	0x230e	; 0x230e <writeToRegister>
    1090:	0f 90       	pop	r0
    1092:	0f 90       	pop	r0
    1094:	df 91       	pop	r29
    1096:	cf 91       	pop	r28
    1098:	08 95       	ret

0000109a <BME280_set_pressure_oversampling_1>:
    109a:	cf 93       	push	r28
    109c:	df 93       	push	r29
    109e:	cd b7       	in	r28, 0x3d	; 61
    10a0:	de b7       	in	r29, 0x3e	; 62
    10a2:	84 e0       	ldi	r24, 0x04	; 4
    10a4:	0e 94 35 08 	call	0x106a	; 0x106a <BME280_set_pressure_oversampling>
    10a8:	df 91       	pop	r29
    10aa:	cf 91       	pop	r28
    10ac:	08 95       	ret

000010ae <BME280_set_humidity_oversampling>:
    10ae:	cf 93       	push	r28
    10b0:	df 93       	push	r29
    10b2:	00 d0       	rcall	.+0      	; 0x10b4 <BME280_set_humidity_oversampling+0x6>
    10b4:	cd b7       	in	r28, 0x3d	; 61
    10b6:	de b7       	in	r29, 0x3e	; 62
    10b8:	8a 83       	std	Y+2, r24	; 0x02
    10ba:	82 ef       	ldi	r24, 0xF2	; 242
    10bc:	0e 94 ad 11 	call	0x235a	; 0x235a <readFromRegister>
    10c0:	89 83       	std	Y+1, r24	; 0x01
    10c2:	89 81       	ldd	r24, Y+1	; 0x01
    10c4:	98 2f       	mov	r25, r24
    10c6:	98 7f       	andi	r25, 0xF8	; 248
    10c8:	8a 81       	ldd	r24, Y+2	; 0x02
    10ca:	89 2b       	or	r24, r25
    10cc:	68 2f       	mov	r22, r24
    10ce:	82 ef       	ldi	r24, 0xF2	; 242
    10d0:	0e 94 87 11 	call	0x230e	; 0x230e <writeToRegister>
    10d4:	0f 90       	pop	r0
    10d6:	0f 90       	pop	r0
    10d8:	df 91       	pop	r29
    10da:	cf 91       	pop	r28
    10dc:	08 95       	ret

000010de <BME280_set_humidity_oversampling_1>:
    10de:	cf 93       	push	r28
    10e0:	df 93       	push	r29
    10e2:	cd b7       	in	r28, 0x3d	; 61
    10e4:	de b7       	in	r29, 0x3e	; 62
    10e6:	81 e0       	ldi	r24, 0x01	; 1
    10e8:	0e 94 57 08 	call	0x10ae	; 0x10ae <BME280_set_humidity_oversampling>
    10ec:	df 91       	pop	r29
    10ee:	cf 91       	pop	r28
    10f0:	08 95       	ret

000010f2 <BME280_set_filter_coefficient>:
    10f2:	cf 93       	push	r28
    10f4:	df 93       	push	r29
    10f6:	00 d0       	rcall	.+0      	; 0x10f8 <BME280_set_filter_coefficient+0x6>
    10f8:	00 d0       	rcall	.+0      	; 0x10fa <BME280_set_filter_coefficient+0x8>
    10fa:	cd b7       	in	r28, 0x3d	; 61
    10fc:	de b7       	in	r29, 0x3e	; 62
    10fe:	8c 83       	std	Y+4, r24	; 0x04
    1100:	0e 94 d4 08 	call	0x11a8	; 0x11a8 <BME280_get_mode>
    1104:	89 83       	std	Y+1, r24	; 0x01
    1106:	85 ef       	ldi	r24, 0xF5	; 245
    1108:	0e 94 ad 11 	call	0x235a	; 0x235a <readFromRegister>
    110c:	8a 83       	std	Y+2, r24	; 0x02
    110e:	0e 94 c0 08 	call	0x1180	; 0x1180 <BME280_set_sleep_mode>
    1112:	8a 81       	ldd	r24, Y+2	; 0x02
    1114:	98 2f       	mov	r25, r24
    1116:	93 7e       	andi	r25, 0xE3	; 227
    1118:	8c 81       	ldd	r24, Y+4	; 0x04
    111a:	89 2b       	or	r24, r25
    111c:	68 2f       	mov	r22, r24
    111e:	85 ef       	ldi	r24, 0xF5	; 245
    1120:	0e 94 87 11 	call	0x230e	; 0x230e <writeToRegister>
    1124:	8b 83       	std	Y+3, r24	; 0x03
    1126:	89 81       	ldd	r24, Y+1	; 0x01
    1128:	0e 94 a8 08 	call	0x1150	; 0x1150 <BME280_set_mode>
    112c:	8b 81       	ldd	r24, Y+3	; 0x03
    112e:	0f 90       	pop	r0
    1130:	0f 90       	pop	r0
    1132:	0f 90       	pop	r0
    1134:	0f 90       	pop	r0
    1136:	df 91       	pop	r29
    1138:	cf 91       	pop	r28
    113a:	08 95       	ret

0000113c <BME280_set_filter_coefficient_2>:
    113c:	cf 93       	push	r28
    113e:	df 93       	push	r29
    1140:	cd b7       	in	r28, 0x3d	; 61
    1142:	de b7       	in	r29, 0x3e	; 62
    1144:	84 e0       	ldi	r24, 0x04	; 4
    1146:	0e 94 79 08 	call	0x10f2	; 0x10f2 <BME280_set_filter_coefficient>
    114a:	df 91       	pop	r29
    114c:	cf 91       	pop	r28
    114e:	08 95       	ret

00001150 <BME280_set_mode>:
    1150:	cf 93       	push	r28
    1152:	df 93       	push	r29
    1154:	00 d0       	rcall	.+0      	; 0x1156 <BME280_set_mode+0x6>
    1156:	cd b7       	in	r28, 0x3d	; 61
    1158:	de b7       	in	r29, 0x3e	; 62
    115a:	8a 83       	std	Y+2, r24	; 0x02
    115c:	84 ef       	ldi	r24, 0xF4	; 244
    115e:	0e 94 ad 11 	call	0x235a	; 0x235a <readFromRegister>
    1162:	89 83       	std	Y+1, r24	; 0x01
    1164:	89 81       	ldd	r24, Y+1	; 0x01
    1166:	98 2f       	mov	r25, r24
    1168:	9c 7f       	andi	r25, 0xFC	; 252
    116a:	8a 81       	ldd	r24, Y+2	; 0x02
    116c:	89 2b       	or	r24, r25
    116e:	68 2f       	mov	r22, r24
    1170:	84 ef       	ldi	r24, 0xF4	; 244
    1172:	0e 94 87 11 	call	0x230e	; 0x230e <writeToRegister>
    1176:	0f 90       	pop	r0
    1178:	0f 90       	pop	r0
    117a:	df 91       	pop	r29
    117c:	cf 91       	pop	r28
    117e:	08 95       	ret

00001180 <BME280_set_sleep_mode>:
    1180:	cf 93       	push	r28
    1182:	df 93       	push	r29
    1184:	cd b7       	in	r28, 0x3d	; 61
    1186:	de b7       	in	r29, 0x3e	; 62
    1188:	80 e0       	ldi	r24, 0x00	; 0
    118a:	0e 94 a8 08 	call	0x1150	; 0x1150 <BME280_set_mode>
    118e:	df 91       	pop	r29
    1190:	cf 91       	pop	r28
    1192:	08 95       	ret

00001194 <BME280_set_normal_mode>:
    1194:	cf 93       	push	r28
    1196:	df 93       	push	r29
    1198:	cd b7       	in	r28, 0x3d	; 61
    119a:	de b7       	in	r29, 0x3e	; 62
    119c:	83 e0       	ldi	r24, 0x03	; 3
    119e:	0e 94 a8 08 	call	0x1150	; 0x1150 <BME280_set_mode>
    11a2:	df 91       	pop	r29
    11a4:	cf 91       	pop	r28
    11a6:	08 95       	ret

000011a8 <BME280_get_mode>:
    11a8:	cf 93       	push	r28
    11aa:	df 93       	push	r29
    11ac:	cd b7       	in	r28, 0x3d	; 61
    11ae:	de b7       	in	r29, 0x3e	; 62
    11b0:	84 ef       	ldi	r24, 0xF4	; 244
    11b2:	0e 94 ad 11 	call	0x235a	; 0x235a <readFromRegister>
    11b6:	83 70       	andi	r24, 0x03	; 3
    11b8:	df 91       	pop	r29
    11ba:	cf 91       	pop	r28
    11bc:	08 95       	ret

000011be <BME280_calibrate_temperature>:
    11be:	cf 93       	push	r28
    11c0:	df 93       	push	r29
    11c2:	cd b7       	in	r28, 0x3d	; 61
    11c4:	de b7       	in	r29, 0x3e	; 62
    11c6:	10 92 12 01 	sts	0x0112, r1	; 0x800112 <dig_T1+0x1>
    11ca:	10 92 11 01 	sts	0x0111, r1	; 0x800111 <dig_T1>
    11ce:	10 92 16 01 	sts	0x0116, r1	; 0x800116 <dig_T2+0x1>
    11d2:	10 92 15 01 	sts	0x0115, r1	; 0x800115 <dig_T2>
    11d6:	10 92 2b 01 	sts	0x012B, r1	; 0x80012b <dig_T3+0x1>
    11da:	10 92 2a 01 	sts	0x012A, r1	; 0x80012a <dig_T3>
    11de:	88 e8       	ldi	r24, 0x88	; 136
    11e0:	0e 94 ad 11 	call	0x235a	; 0x235a <readFromRegister>
    11e4:	28 2f       	mov	r18, r24
    11e6:	30 e0       	ldi	r19, 0x00	; 0
    11e8:	80 91 11 01 	lds	r24, 0x0111	; 0x800111 <dig_T1>
    11ec:	90 91 12 01 	lds	r25, 0x0112	; 0x800112 <dig_T1+0x1>
    11f0:	82 2b       	or	r24, r18
    11f2:	93 2b       	or	r25, r19
    11f4:	90 93 12 01 	sts	0x0112, r25	; 0x800112 <dig_T1+0x1>
    11f8:	80 93 11 01 	sts	0x0111, r24	; 0x800111 <dig_T1>
    11fc:	89 e8       	ldi	r24, 0x89	; 137
    11fe:	0e 94 ad 11 	call	0x235a	; 0x235a <readFromRegister>
    1202:	88 2f       	mov	r24, r24
    1204:	90 e0       	ldi	r25, 0x00	; 0
    1206:	98 2f       	mov	r25, r24
    1208:	88 27       	eor	r24, r24
    120a:	9c 01       	movw	r18, r24
    120c:	80 91 11 01 	lds	r24, 0x0111	; 0x800111 <dig_T1>
    1210:	90 91 12 01 	lds	r25, 0x0112	; 0x800112 <dig_T1+0x1>
    1214:	82 2b       	or	r24, r18
    1216:	93 2b       	or	r25, r19
    1218:	90 93 12 01 	sts	0x0112, r25	; 0x800112 <dig_T1+0x1>
    121c:	80 93 11 01 	sts	0x0111, r24	; 0x800111 <dig_T1>
    1220:	8a e8       	ldi	r24, 0x8A	; 138
    1222:	0e 94 ad 11 	call	0x235a	; 0x235a <readFromRegister>
    1226:	28 2f       	mov	r18, r24
    1228:	30 e0       	ldi	r19, 0x00	; 0
    122a:	80 91 15 01 	lds	r24, 0x0115	; 0x800115 <dig_T2>
    122e:	90 91 16 01 	lds	r25, 0x0116	; 0x800116 <dig_T2+0x1>
    1232:	82 2b       	or	r24, r18
    1234:	93 2b       	or	r25, r19
    1236:	90 93 16 01 	sts	0x0116, r25	; 0x800116 <dig_T2+0x1>
    123a:	80 93 15 01 	sts	0x0115, r24	; 0x800115 <dig_T2>
    123e:	8b e8       	ldi	r24, 0x8B	; 139
    1240:	0e 94 ad 11 	call	0x235a	; 0x235a <readFromRegister>
    1244:	88 2f       	mov	r24, r24
    1246:	90 e0       	ldi	r25, 0x00	; 0
    1248:	38 2f       	mov	r19, r24
    124a:	22 27       	eor	r18, r18
    124c:	80 91 15 01 	lds	r24, 0x0115	; 0x800115 <dig_T2>
    1250:	90 91 16 01 	lds	r25, 0x0116	; 0x800116 <dig_T2+0x1>
    1254:	82 2b       	or	r24, r18
    1256:	93 2b       	or	r25, r19
    1258:	90 93 16 01 	sts	0x0116, r25	; 0x800116 <dig_T2+0x1>
    125c:	80 93 15 01 	sts	0x0115, r24	; 0x800115 <dig_T2>
    1260:	8c e8       	ldi	r24, 0x8C	; 140
    1262:	0e 94 ad 11 	call	0x235a	; 0x235a <readFromRegister>
    1266:	28 2f       	mov	r18, r24
    1268:	30 e0       	ldi	r19, 0x00	; 0
    126a:	80 91 2a 01 	lds	r24, 0x012A	; 0x80012a <dig_T3>
    126e:	90 91 2b 01 	lds	r25, 0x012B	; 0x80012b <dig_T3+0x1>
    1272:	82 2b       	or	r24, r18
    1274:	93 2b       	or	r25, r19
    1276:	90 93 2b 01 	sts	0x012B, r25	; 0x80012b <dig_T3+0x1>
    127a:	80 93 2a 01 	sts	0x012A, r24	; 0x80012a <dig_T3>
    127e:	8d e8       	ldi	r24, 0x8D	; 141
    1280:	0e 94 ad 11 	call	0x235a	; 0x235a <readFromRegister>
    1284:	88 2f       	mov	r24, r24
    1286:	90 e0       	ldi	r25, 0x00	; 0
    1288:	38 2f       	mov	r19, r24
    128a:	22 27       	eor	r18, r18
    128c:	80 91 2a 01 	lds	r24, 0x012A	; 0x80012a <dig_T3>
    1290:	90 91 2b 01 	lds	r25, 0x012B	; 0x80012b <dig_T3+0x1>
    1294:	82 2b       	or	r24, r18
    1296:	93 2b       	or	r25, r19
    1298:	90 93 2b 01 	sts	0x012B, r25	; 0x80012b <dig_T3+0x1>
    129c:	80 93 2a 01 	sts	0x012A, r24	; 0x80012a <dig_T3>
    12a0:	00 00       	nop
    12a2:	df 91       	pop	r29
    12a4:	cf 91       	pop	r28
    12a6:	08 95       	ret

000012a8 <BME280_calibrate_pressure>:
    12a8:	cf 93       	push	r28
    12aa:	df 93       	push	r29
    12ac:	cd b7       	in	r28, 0x3d	; 61
    12ae:	de b7       	in	r29, 0x3e	; 62
    12b0:	10 92 20 01 	sts	0x0120, r1	; 0x800120 <dig_P1+0x1>
    12b4:	10 92 1f 01 	sts	0x011F, r1	; 0x80011f <dig_P1>
    12b8:	10 92 19 01 	sts	0x0119, r1	; 0x800119 <dig_P2+0x1>
    12bc:	10 92 18 01 	sts	0x0118, r1	; 0x800118 <dig_P2>
    12c0:	10 92 22 01 	sts	0x0122, r1	; 0x800122 <dig_P3+0x1>
    12c4:	10 92 21 01 	sts	0x0121, r1	; 0x800121 <dig_P3>
    12c8:	10 92 1b 01 	sts	0x011B, r1	; 0x80011b <dig_P4+0x1>
    12cc:	10 92 1a 01 	sts	0x011A, r1	; 0x80011a <dig_P4>
    12d0:	10 92 1e 01 	sts	0x011E, r1	; 0x80011e <dig_P5+0x1>
    12d4:	10 92 1d 01 	sts	0x011D, r1	; 0x80011d <dig_P5>
    12d8:	10 92 2d 01 	sts	0x012D, r1	; 0x80012d <dig_P6+0x1>
    12dc:	10 92 2c 01 	sts	0x012C, r1	; 0x80012c <dig_P6>
    12e0:	10 92 10 01 	sts	0x0110, r1	; 0x800110 <dig_P7+0x1>
    12e4:	10 92 0f 01 	sts	0x010F, r1	; 0x80010f <dig_P7>
    12e8:	10 92 24 01 	sts	0x0124, r1	; 0x800124 <dig_P8+0x1>
    12ec:	10 92 23 01 	sts	0x0123, r1	; 0x800123 <dig_P8>
    12f0:	10 92 29 01 	sts	0x0129, r1	; 0x800129 <dig_P9+0x1>
    12f4:	10 92 28 01 	sts	0x0128, r1	; 0x800128 <dig_P9>
    12f8:	8e e8       	ldi	r24, 0x8E	; 142
    12fa:	0e 94 ad 11 	call	0x235a	; 0x235a <readFromRegister>
    12fe:	28 2f       	mov	r18, r24
    1300:	30 e0       	ldi	r19, 0x00	; 0
    1302:	80 91 1f 01 	lds	r24, 0x011F	; 0x80011f <dig_P1>
    1306:	90 91 20 01 	lds	r25, 0x0120	; 0x800120 <dig_P1+0x1>
    130a:	82 2b       	or	r24, r18
    130c:	93 2b       	or	r25, r19
    130e:	90 93 20 01 	sts	0x0120, r25	; 0x800120 <dig_P1+0x1>
    1312:	80 93 1f 01 	sts	0x011F, r24	; 0x80011f <dig_P1>
    1316:	8f e8       	ldi	r24, 0x8F	; 143
    1318:	0e 94 ad 11 	call	0x235a	; 0x235a <readFromRegister>
    131c:	88 2f       	mov	r24, r24
    131e:	90 e0       	ldi	r25, 0x00	; 0
    1320:	98 2f       	mov	r25, r24
    1322:	88 27       	eor	r24, r24
    1324:	9c 01       	movw	r18, r24
    1326:	80 91 1f 01 	lds	r24, 0x011F	; 0x80011f <dig_P1>
    132a:	90 91 20 01 	lds	r25, 0x0120	; 0x800120 <dig_P1+0x1>
    132e:	82 2b       	or	r24, r18
    1330:	93 2b       	or	r25, r19
    1332:	90 93 20 01 	sts	0x0120, r25	; 0x800120 <dig_P1+0x1>
    1336:	80 93 1f 01 	sts	0x011F, r24	; 0x80011f <dig_P1>
    133a:	80 e9       	ldi	r24, 0x90	; 144
    133c:	0e 94 ad 11 	call	0x235a	; 0x235a <readFromRegister>
    1340:	28 2f       	mov	r18, r24
    1342:	30 e0       	ldi	r19, 0x00	; 0
    1344:	80 91 18 01 	lds	r24, 0x0118	; 0x800118 <dig_P2>
    1348:	90 91 19 01 	lds	r25, 0x0119	; 0x800119 <dig_P2+0x1>
    134c:	82 2b       	or	r24, r18
    134e:	93 2b       	or	r25, r19
    1350:	90 93 19 01 	sts	0x0119, r25	; 0x800119 <dig_P2+0x1>
    1354:	80 93 18 01 	sts	0x0118, r24	; 0x800118 <dig_P2>
    1358:	81 e9       	ldi	r24, 0x91	; 145
    135a:	0e 94 ad 11 	call	0x235a	; 0x235a <readFromRegister>
    135e:	88 2f       	mov	r24, r24
    1360:	90 e0       	ldi	r25, 0x00	; 0
    1362:	38 2f       	mov	r19, r24
    1364:	22 27       	eor	r18, r18
    1366:	80 91 18 01 	lds	r24, 0x0118	; 0x800118 <dig_P2>
    136a:	90 91 19 01 	lds	r25, 0x0119	; 0x800119 <dig_P2+0x1>
    136e:	82 2b       	or	r24, r18
    1370:	93 2b       	or	r25, r19
    1372:	90 93 19 01 	sts	0x0119, r25	; 0x800119 <dig_P2+0x1>
    1376:	80 93 18 01 	sts	0x0118, r24	; 0x800118 <dig_P2>
    137a:	82 e9       	ldi	r24, 0x92	; 146
    137c:	0e 94 ad 11 	call	0x235a	; 0x235a <readFromRegister>
    1380:	28 2f       	mov	r18, r24
    1382:	30 e0       	ldi	r19, 0x00	; 0
    1384:	80 91 21 01 	lds	r24, 0x0121	; 0x800121 <dig_P3>
    1388:	90 91 22 01 	lds	r25, 0x0122	; 0x800122 <dig_P3+0x1>
    138c:	82 2b       	or	r24, r18
    138e:	93 2b       	or	r25, r19
    1390:	90 93 22 01 	sts	0x0122, r25	; 0x800122 <dig_P3+0x1>
    1394:	80 93 21 01 	sts	0x0121, r24	; 0x800121 <dig_P3>
    1398:	83 e9       	ldi	r24, 0x93	; 147
    139a:	0e 94 ad 11 	call	0x235a	; 0x235a <readFromRegister>
    139e:	88 2f       	mov	r24, r24
    13a0:	90 e0       	ldi	r25, 0x00	; 0
    13a2:	38 2f       	mov	r19, r24
    13a4:	22 27       	eor	r18, r18
    13a6:	80 91 21 01 	lds	r24, 0x0121	; 0x800121 <dig_P3>
    13aa:	90 91 22 01 	lds	r25, 0x0122	; 0x800122 <dig_P3+0x1>
    13ae:	82 2b       	or	r24, r18
    13b0:	93 2b       	or	r25, r19
    13b2:	90 93 22 01 	sts	0x0122, r25	; 0x800122 <dig_P3+0x1>
    13b6:	80 93 21 01 	sts	0x0121, r24	; 0x800121 <dig_P3>
    13ba:	84 e9       	ldi	r24, 0x94	; 148
    13bc:	0e 94 ad 11 	call	0x235a	; 0x235a <readFromRegister>
    13c0:	28 2f       	mov	r18, r24
    13c2:	30 e0       	ldi	r19, 0x00	; 0
    13c4:	80 91 1a 01 	lds	r24, 0x011A	; 0x80011a <dig_P4>
    13c8:	90 91 1b 01 	lds	r25, 0x011B	; 0x80011b <dig_P4+0x1>
    13cc:	82 2b       	or	r24, r18
    13ce:	93 2b       	or	r25, r19
    13d0:	90 93 1b 01 	sts	0x011B, r25	; 0x80011b <dig_P4+0x1>
    13d4:	80 93 1a 01 	sts	0x011A, r24	; 0x80011a <dig_P4>
    13d8:	85 e9       	ldi	r24, 0x95	; 149
    13da:	0e 94 ad 11 	call	0x235a	; 0x235a <readFromRegister>
    13de:	88 2f       	mov	r24, r24
    13e0:	90 e0       	ldi	r25, 0x00	; 0
    13e2:	38 2f       	mov	r19, r24
    13e4:	22 27       	eor	r18, r18
    13e6:	80 91 1a 01 	lds	r24, 0x011A	; 0x80011a <dig_P4>
    13ea:	90 91 1b 01 	lds	r25, 0x011B	; 0x80011b <dig_P4+0x1>
    13ee:	82 2b       	or	r24, r18
    13f0:	93 2b       	or	r25, r19
    13f2:	90 93 1b 01 	sts	0x011B, r25	; 0x80011b <dig_P4+0x1>
    13f6:	80 93 1a 01 	sts	0x011A, r24	; 0x80011a <dig_P4>
    13fa:	86 e9       	ldi	r24, 0x96	; 150
    13fc:	0e 94 ad 11 	call	0x235a	; 0x235a <readFromRegister>
    1400:	28 2f       	mov	r18, r24
    1402:	30 e0       	ldi	r19, 0x00	; 0
    1404:	80 91 1d 01 	lds	r24, 0x011D	; 0x80011d <dig_P5>
    1408:	90 91 1e 01 	lds	r25, 0x011E	; 0x80011e <dig_P5+0x1>
    140c:	82 2b       	or	r24, r18
    140e:	93 2b       	or	r25, r19
    1410:	90 93 1e 01 	sts	0x011E, r25	; 0x80011e <dig_P5+0x1>
    1414:	80 93 1d 01 	sts	0x011D, r24	; 0x80011d <dig_P5>
    1418:	87 e9       	ldi	r24, 0x97	; 151
    141a:	0e 94 ad 11 	call	0x235a	; 0x235a <readFromRegister>
    141e:	88 2f       	mov	r24, r24
    1420:	90 e0       	ldi	r25, 0x00	; 0
    1422:	38 2f       	mov	r19, r24
    1424:	22 27       	eor	r18, r18
    1426:	80 91 1d 01 	lds	r24, 0x011D	; 0x80011d <dig_P5>
    142a:	90 91 1e 01 	lds	r25, 0x011E	; 0x80011e <dig_P5+0x1>
    142e:	82 2b       	or	r24, r18
    1430:	93 2b       	or	r25, r19
    1432:	90 93 1e 01 	sts	0x011E, r25	; 0x80011e <dig_P5+0x1>
    1436:	80 93 1d 01 	sts	0x011D, r24	; 0x80011d <dig_P5>
    143a:	88 e9       	ldi	r24, 0x98	; 152
    143c:	0e 94 ad 11 	call	0x235a	; 0x235a <readFromRegister>
    1440:	28 2f       	mov	r18, r24
    1442:	30 e0       	ldi	r19, 0x00	; 0
    1444:	80 91 2c 01 	lds	r24, 0x012C	; 0x80012c <dig_P6>
    1448:	90 91 2d 01 	lds	r25, 0x012D	; 0x80012d <dig_P6+0x1>
    144c:	82 2b       	or	r24, r18
    144e:	93 2b       	or	r25, r19
    1450:	90 93 2d 01 	sts	0x012D, r25	; 0x80012d <dig_P6+0x1>
    1454:	80 93 2c 01 	sts	0x012C, r24	; 0x80012c <dig_P6>
    1458:	89 e9       	ldi	r24, 0x99	; 153
    145a:	0e 94 ad 11 	call	0x235a	; 0x235a <readFromRegister>
    145e:	88 2f       	mov	r24, r24
    1460:	90 e0       	ldi	r25, 0x00	; 0
    1462:	38 2f       	mov	r19, r24
    1464:	22 27       	eor	r18, r18
    1466:	80 91 2c 01 	lds	r24, 0x012C	; 0x80012c <dig_P6>
    146a:	90 91 2d 01 	lds	r25, 0x012D	; 0x80012d <dig_P6+0x1>
    146e:	82 2b       	or	r24, r18
    1470:	93 2b       	or	r25, r19
    1472:	90 93 2d 01 	sts	0x012D, r25	; 0x80012d <dig_P6+0x1>
    1476:	80 93 2c 01 	sts	0x012C, r24	; 0x80012c <dig_P6>
    147a:	8a e9       	ldi	r24, 0x9A	; 154
    147c:	0e 94 ad 11 	call	0x235a	; 0x235a <readFromRegister>
    1480:	28 2f       	mov	r18, r24
    1482:	30 e0       	ldi	r19, 0x00	; 0
    1484:	80 91 0f 01 	lds	r24, 0x010F	; 0x80010f <dig_P7>
    1488:	90 91 10 01 	lds	r25, 0x0110	; 0x800110 <dig_P7+0x1>
    148c:	82 2b       	or	r24, r18
    148e:	93 2b       	or	r25, r19
    1490:	90 93 10 01 	sts	0x0110, r25	; 0x800110 <dig_P7+0x1>
    1494:	80 93 0f 01 	sts	0x010F, r24	; 0x80010f <dig_P7>
    1498:	8b e9       	ldi	r24, 0x9B	; 155
    149a:	0e 94 ad 11 	call	0x235a	; 0x235a <readFromRegister>
    149e:	88 2f       	mov	r24, r24
    14a0:	90 e0       	ldi	r25, 0x00	; 0
    14a2:	38 2f       	mov	r19, r24
    14a4:	22 27       	eor	r18, r18
    14a6:	80 91 0f 01 	lds	r24, 0x010F	; 0x80010f <dig_P7>
    14aa:	90 91 10 01 	lds	r25, 0x0110	; 0x800110 <dig_P7+0x1>
    14ae:	82 2b       	or	r24, r18
    14b0:	93 2b       	or	r25, r19
    14b2:	90 93 10 01 	sts	0x0110, r25	; 0x800110 <dig_P7+0x1>
    14b6:	80 93 0f 01 	sts	0x010F, r24	; 0x80010f <dig_P7>
    14ba:	8c e9       	ldi	r24, 0x9C	; 156
    14bc:	0e 94 ad 11 	call	0x235a	; 0x235a <readFromRegister>
    14c0:	28 2f       	mov	r18, r24
    14c2:	30 e0       	ldi	r19, 0x00	; 0
    14c4:	80 91 23 01 	lds	r24, 0x0123	; 0x800123 <dig_P8>
    14c8:	90 91 24 01 	lds	r25, 0x0124	; 0x800124 <dig_P8+0x1>
    14cc:	82 2b       	or	r24, r18
    14ce:	93 2b       	or	r25, r19
    14d0:	90 93 24 01 	sts	0x0124, r25	; 0x800124 <dig_P8+0x1>
    14d4:	80 93 23 01 	sts	0x0123, r24	; 0x800123 <dig_P8>
    14d8:	8d e9       	ldi	r24, 0x9D	; 157
    14da:	0e 94 ad 11 	call	0x235a	; 0x235a <readFromRegister>
    14de:	88 2f       	mov	r24, r24
    14e0:	90 e0       	ldi	r25, 0x00	; 0
    14e2:	38 2f       	mov	r19, r24
    14e4:	22 27       	eor	r18, r18
    14e6:	80 91 23 01 	lds	r24, 0x0123	; 0x800123 <dig_P8>
    14ea:	90 91 24 01 	lds	r25, 0x0124	; 0x800124 <dig_P8+0x1>
    14ee:	82 2b       	or	r24, r18
    14f0:	93 2b       	or	r25, r19
    14f2:	90 93 24 01 	sts	0x0124, r25	; 0x800124 <dig_P8+0x1>
    14f6:	80 93 23 01 	sts	0x0123, r24	; 0x800123 <dig_P8>
    14fa:	8e e9       	ldi	r24, 0x9E	; 158
    14fc:	0e 94 ad 11 	call	0x235a	; 0x235a <readFromRegister>
    1500:	28 2f       	mov	r18, r24
    1502:	30 e0       	ldi	r19, 0x00	; 0
    1504:	80 91 28 01 	lds	r24, 0x0128	; 0x800128 <dig_P9>
    1508:	90 91 29 01 	lds	r25, 0x0129	; 0x800129 <dig_P9+0x1>
    150c:	82 2b       	or	r24, r18
    150e:	93 2b       	or	r25, r19
    1510:	90 93 29 01 	sts	0x0129, r25	; 0x800129 <dig_P9+0x1>
    1514:	80 93 28 01 	sts	0x0128, r24	; 0x800128 <dig_P9>
    1518:	8f e9       	ldi	r24, 0x9F	; 159
    151a:	0e 94 ad 11 	call	0x235a	; 0x235a <readFromRegister>
    151e:	88 2f       	mov	r24, r24
    1520:	90 e0       	ldi	r25, 0x00	; 0
    1522:	38 2f       	mov	r19, r24
    1524:	22 27       	eor	r18, r18
    1526:	80 91 28 01 	lds	r24, 0x0128	; 0x800128 <dig_P9>
    152a:	90 91 29 01 	lds	r25, 0x0129	; 0x800129 <dig_P9+0x1>
    152e:	82 2b       	or	r24, r18
    1530:	93 2b       	or	r25, r19
    1532:	90 93 29 01 	sts	0x0129, r25	; 0x800129 <dig_P9+0x1>
    1536:	80 93 28 01 	sts	0x0128, r24	; 0x800128 <dig_P9>
    153a:	00 00       	nop
    153c:	df 91       	pop	r29
    153e:	cf 91       	pop	r28
    1540:	08 95       	ret

00001542 <BME280_calibrate_humidity>:
    1542:	cf 93       	push	r28
    1544:	df 93       	push	r29
    1546:	cd b7       	in	r28, 0x3d	; 61
    1548:	de b7       	in	r29, 0x3e	; 62
    154a:	10 92 17 01 	sts	0x0117, r1	; 0x800117 <dig_H1>
    154e:	10 92 2f 01 	sts	0x012F, r1	; 0x80012f <dig_H2+0x1>
    1552:	10 92 2e 01 	sts	0x012E, r1	; 0x80012e <dig_H2>
    1556:	10 92 27 01 	sts	0x0127, r1	; 0x800127 <dig_H3>
    155a:	10 92 14 01 	sts	0x0114, r1	; 0x800114 <dig_H4+0x1>
    155e:	10 92 13 01 	sts	0x0113, r1	; 0x800113 <dig_H4>
    1562:	10 92 26 01 	sts	0x0126, r1	; 0x800126 <dig_H5+0x1>
    1566:	10 92 25 01 	sts	0x0125, r1	; 0x800125 <dig_H5>
    156a:	10 92 1c 01 	sts	0x011C, r1	; 0x80011c <dig_H6>
    156e:	81 ea       	ldi	r24, 0xA1	; 161
    1570:	0e 94 ad 11 	call	0x235a	; 0x235a <readFromRegister>
    1574:	98 2f       	mov	r25, r24
    1576:	80 91 17 01 	lds	r24, 0x0117	; 0x800117 <dig_H1>
    157a:	89 2b       	or	r24, r25
    157c:	80 93 17 01 	sts	0x0117, r24	; 0x800117 <dig_H1>
    1580:	81 ee       	ldi	r24, 0xE1	; 225
    1582:	0e 94 ad 11 	call	0x235a	; 0x235a <readFromRegister>
    1586:	28 2f       	mov	r18, r24
    1588:	30 e0       	ldi	r19, 0x00	; 0
    158a:	80 91 2e 01 	lds	r24, 0x012E	; 0x80012e <dig_H2>
    158e:	90 91 2f 01 	lds	r25, 0x012F	; 0x80012f <dig_H2+0x1>
    1592:	82 2b       	or	r24, r18
    1594:	93 2b       	or	r25, r19
    1596:	90 93 2f 01 	sts	0x012F, r25	; 0x80012f <dig_H2+0x1>
    159a:	80 93 2e 01 	sts	0x012E, r24	; 0x80012e <dig_H2>
    159e:	82 ee       	ldi	r24, 0xE2	; 226
    15a0:	0e 94 ad 11 	call	0x235a	; 0x235a <readFromRegister>
    15a4:	88 2f       	mov	r24, r24
    15a6:	90 e0       	ldi	r25, 0x00	; 0
    15a8:	38 2f       	mov	r19, r24
    15aa:	22 27       	eor	r18, r18
    15ac:	80 91 2e 01 	lds	r24, 0x012E	; 0x80012e <dig_H2>
    15b0:	90 91 2f 01 	lds	r25, 0x012F	; 0x80012f <dig_H2+0x1>
    15b4:	82 2b       	or	r24, r18
    15b6:	93 2b       	or	r25, r19
    15b8:	90 93 2f 01 	sts	0x012F, r25	; 0x80012f <dig_H2+0x1>
    15bc:	80 93 2e 01 	sts	0x012E, r24	; 0x80012e <dig_H2>
    15c0:	83 ee       	ldi	r24, 0xE3	; 227
    15c2:	0e 94 ad 11 	call	0x235a	; 0x235a <readFromRegister>
    15c6:	98 2f       	mov	r25, r24
    15c8:	80 91 27 01 	lds	r24, 0x0127	; 0x800127 <dig_H3>
    15cc:	89 2b       	or	r24, r25
    15ce:	80 93 27 01 	sts	0x0127, r24	; 0x800127 <dig_H3>
    15d2:	84 ee       	ldi	r24, 0xE4	; 228
    15d4:	0e 94 ad 11 	call	0x235a	; 0x235a <readFromRegister>
    15d8:	88 2f       	mov	r24, r24
    15da:	90 e0       	ldi	r25, 0x00	; 0
    15dc:	9c 01       	movw	r18, r24
    15de:	22 95       	swap	r18
    15e0:	32 95       	swap	r19
    15e2:	30 7f       	andi	r19, 0xF0	; 240
    15e4:	32 27       	eor	r19, r18
    15e6:	20 7f       	andi	r18, 0xF0	; 240
    15e8:	32 27       	eor	r19, r18
    15ea:	80 91 13 01 	lds	r24, 0x0113	; 0x800113 <dig_H4>
    15ee:	90 91 14 01 	lds	r25, 0x0114	; 0x800114 <dig_H4+0x1>
    15f2:	82 2b       	or	r24, r18
    15f4:	93 2b       	or	r25, r19
    15f6:	90 93 14 01 	sts	0x0114, r25	; 0x800114 <dig_H4+0x1>
    15fa:	80 93 13 01 	sts	0x0113, r24	; 0x800113 <dig_H4>
    15fe:	85 ee       	ldi	r24, 0xE5	; 229
    1600:	0e 94 ad 11 	call	0x235a	; 0x235a <readFromRegister>
    1604:	88 2f       	mov	r24, r24
    1606:	90 e0       	ldi	r25, 0x00	; 0
    1608:	9c 01       	movw	r18, r24
    160a:	2f 70       	andi	r18, 0x0F	; 15
    160c:	33 27       	eor	r19, r19
    160e:	80 91 13 01 	lds	r24, 0x0113	; 0x800113 <dig_H4>
    1612:	90 91 14 01 	lds	r25, 0x0114	; 0x800114 <dig_H4+0x1>
    1616:	82 2b       	or	r24, r18
    1618:	93 2b       	or	r25, r19
    161a:	90 93 14 01 	sts	0x0114, r25	; 0x800114 <dig_H4+0x1>
    161e:	80 93 13 01 	sts	0x0113, r24	; 0x800113 <dig_H4>
    1622:	85 ee       	ldi	r24, 0xE5	; 229
    1624:	0e 94 ad 11 	call	0x235a	; 0x235a <readFromRegister>
    1628:	82 95       	swap	r24
    162a:	8f 70       	andi	r24, 0x0F	; 15
    162c:	28 2f       	mov	r18, r24
    162e:	30 e0       	ldi	r19, 0x00	; 0
    1630:	80 91 25 01 	lds	r24, 0x0125	; 0x800125 <dig_H5>
    1634:	90 91 26 01 	lds	r25, 0x0126	; 0x800126 <dig_H5+0x1>
    1638:	82 2b       	or	r24, r18
    163a:	93 2b       	or	r25, r19
    163c:	90 93 26 01 	sts	0x0126, r25	; 0x800126 <dig_H5+0x1>
    1640:	80 93 25 01 	sts	0x0125, r24	; 0x800125 <dig_H5>
    1644:	86 ee       	ldi	r24, 0xE6	; 230
    1646:	0e 94 ad 11 	call	0x235a	; 0x235a <readFromRegister>
    164a:	88 2f       	mov	r24, r24
    164c:	90 e0       	ldi	r25, 0x00	; 0
    164e:	38 2f       	mov	r19, r24
    1650:	22 27       	eor	r18, r18
    1652:	80 91 25 01 	lds	r24, 0x0125	; 0x800125 <dig_H5>
    1656:	90 91 26 01 	lds	r25, 0x0126	; 0x800126 <dig_H5+0x1>
    165a:	82 2b       	or	r24, r18
    165c:	93 2b       	or	r25, r19
    165e:	90 93 26 01 	sts	0x0126, r25	; 0x800126 <dig_H5+0x1>
    1662:	80 93 25 01 	sts	0x0125, r24	; 0x800125 <dig_H5>
    1666:	87 ee       	ldi	r24, 0xE7	; 231
    1668:	0e 94 ad 11 	call	0x235a	; 0x235a <readFromRegister>
    166c:	98 2f       	mov	r25, r24
    166e:	80 91 1c 01 	lds	r24, 0x011C	; 0x80011c <dig_H6>
    1672:	89 2b       	or	r24, r25
    1674:	80 93 1c 01 	sts	0x011C, r24	; 0x80011c <dig_H6>
    1678:	00 00       	nop
    167a:	df 91       	pop	r29
    167c:	cf 91       	pop	r28
    167e:	08 95       	ret

00001680 <BME280_get_temperature>:

double BME280_get_temperature()
{
    1680:	cf 93       	push	r28
    1682:	df 93       	push	r29
    1684:	00 d0       	rcall	.+0      	; 0x1686 <BME280_get_temperature+0x6>
    1686:	00 d0       	rcall	.+0      	; 0x1688 <BME280_get_temperature+0x8>
    1688:	cd b7       	in	r28, 0x3d	; 61
    168a:	de b7       	in	r29, 0x3e	; 62
	int32_t temp = 0;
    168c:	19 82       	std	Y+1, r1	; 0x01
    168e:	1a 82       	std	Y+2, r1	; 0x02
    1690:	1b 82       	std	Y+3, r1	; 0x03
    1692:	1c 82       	std	Y+4, r1	; 0x04
	
	temp |= ((int32_t)readFromRegister(REG_TEMP_MSB) << 12);
    1694:	8a ef       	ldi	r24, 0xFA	; 250
    1696:	0e 94 ad 11 	call	0x235a	; 0x235a <readFromRegister>
    169a:	88 2f       	mov	r24, r24
    169c:	90 e0       	ldi	r25, 0x00	; 0
    169e:	a0 e0       	ldi	r26, 0x00	; 0
    16a0:	b0 e0       	ldi	r27, 0x00	; 0
    16a2:	07 2e       	mov	r0, r23
    16a4:	7c e0       	ldi	r23, 0x0C	; 12
    16a6:	88 0f       	add	r24, r24
    16a8:	99 1f       	adc	r25, r25
    16aa:	aa 1f       	adc	r26, r26
    16ac:	bb 1f       	adc	r27, r27
    16ae:	7a 95       	dec	r23
    16b0:	d1 f7       	brne	.-12     	; 0x16a6 <BME280_get_temperature+0x26>
    16b2:	70 2d       	mov	r23, r0
    16b4:	29 81       	ldd	r18, Y+1	; 0x01
    16b6:	3a 81       	ldd	r19, Y+2	; 0x02
    16b8:	4b 81       	ldd	r20, Y+3	; 0x03
    16ba:	5c 81       	ldd	r21, Y+4	; 0x04
    16bc:	82 2b       	or	r24, r18
    16be:	93 2b       	or	r25, r19
    16c0:	a4 2b       	or	r26, r20
    16c2:	b5 2b       	or	r27, r21
    16c4:	89 83       	std	Y+1, r24	; 0x01
    16c6:	9a 83       	std	Y+2, r25	; 0x02
    16c8:	ab 83       	std	Y+3, r26	; 0x03
    16ca:	bc 83       	std	Y+4, r27	; 0x04
	temp |= ((int32_t)readFromRegister(REG_TEMP_LSB) <<  4);
    16cc:	8b ef       	ldi	r24, 0xFB	; 251
    16ce:	0e 94 ad 11 	call	0x235a	; 0x235a <readFromRegister>
    16d2:	88 2f       	mov	r24, r24
    16d4:	90 e0       	ldi	r25, 0x00	; 0
    16d6:	a0 e0       	ldi	r26, 0x00	; 0
    16d8:	b0 e0       	ldi	r27, 0x00	; 0
    16da:	88 0f       	add	r24, r24
    16dc:	99 1f       	adc	r25, r25
    16de:	aa 1f       	adc	r26, r26
    16e0:	bb 1f       	adc	r27, r27
    16e2:	88 0f       	add	r24, r24
    16e4:	99 1f       	adc	r25, r25
    16e6:	aa 1f       	adc	r26, r26
    16e8:	bb 1f       	adc	r27, r27
    16ea:	88 0f       	add	r24, r24
    16ec:	99 1f       	adc	r25, r25
    16ee:	aa 1f       	adc	r26, r26
    16f0:	bb 1f       	adc	r27, r27
    16f2:	88 0f       	add	r24, r24
    16f4:	99 1f       	adc	r25, r25
    16f6:	aa 1f       	adc	r26, r26
    16f8:	bb 1f       	adc	r27, r27
    16fa:	9c 01       	movw	r18, r24
    16fc:	ad 01       	movw	r20, r26
    16fe:	89 81       	ldd	r24, Y+1	; 0x01
    1700:	9a 81       	ldd	r25, Y+2	; 0x02
    1702:	ab 81       	ldd	r26, Y+3	; 0x03
    1704:	bc 81       	ldd	r27, Y+4	; 0x04
    1706:	82 2b       	or	r24, r18
    1708:	93 2b       	or	r25, r19
    170a:	a4 2b       	or	r26, r20
    170c:	b5 2b       	or	r27, r21
    170e:	89 83       	std	Y+1, r24	; 0x01
    1710:	9a 83       	std	Y+2, r25	; 0x02
    1712:	ab 83       	std	Y+3, r26	; 0x03
    1714:	bc 83       	std	Y+4, r27	; 0x04
	temp |= ((int32_t)readFromRegister(REG_TEMP_XLSB) >>  4);
    1716:	8c ef       	ldi	r24, 0xFC	; 252
    1718:	0e 94 ad 11 	call	0x235a	; 0x235a <readFromRegister>
    171c:	82 95       	swap	r24
    171e:	8f 70       	andi	r24, 0x0F	; 15
    1720:	88 2f       	mov	r24, r24
    1722:	90 e0       	ldi	r25, 0x00	; 0
    1724:	a0 e0       	ldi	r26, 0x00	; 0
    1726:	b0 e0       	ldi	r27, 0x00	; 0
    1728:	29 81       	ldd	r18, Y+1	; 0x01
    172a:	3a 81       	ldd	r19, Y+2	; 0x02
    172c:	4b 81       	ldd	r20, Y+3	; 0x03
    172e:	5c 81       	ldd	r21, Y+4	; 0x04
    1730:	82 2b       	or	r24, r18
    1732:	93 2b       	or	r25, r19
    1734:	a4 2b       	or	r26, r20
    1736:	b5 2b       	or	r27, r21
    1738:	89 83       	std	Y+1, r24	; 0x01
    173a:	9a 83       	std	Y+2, r25	; 0x02
    173c:	ab 83       	std	Y+3, r26	; 0x03
    173e:	bc 83       	std	Y+4, r27	; 0x04
	
	return BME280_compensate_T_double(temp);
    1740:	89 81       	ldd	r24, Y+1	; 0x01
    1742:	9a 81       	ldd	r25, Y+2	; 0x02
    1744:	ab 81       	ldd	r26, Y+3	; 0x03
    1746:	bc 81       	ldd	r27, Y+4	; 0x04
    1748:	bc 01       	movw	r22, r24
    174a:	cd 01       	movw	r24, r26
    174c:	0e 94 6d 0c 	call	0x18da	; 0x18da <BME280_compensate_T_double>
    1750:	dc 01       	movw	r26, r24
    1752:	cb 01       	movw	r24, r22
}
    1754:	bc 01       	movw	r22, r24
    1756:	cd 01       	movw	r24, r26
    1758:	0f 90       	pop	r0
    175a:	0f 90       	pop	r0
    175c:	0f 90       	pop	r0
    175e:	0f 90       	pop	r0
    1760:	df 91       	pop	r29
    1762:	cf 91       	pop	r28
    1764:	08 95       	ret

00001766 <BME280_get_pressure>:

double BME280_get_pressure()
{
    1766:	cf 93       	push	r28
    1768:	df 93       	push	r29
    176a:	00 d0       	rcall	.+0      	; 0x176c <BME280_get_pressure+0x6>
    176c:	00 d0       	rcall	.+0      	; 0x176e <BME280_get_pressure+0x8>
    176e:	cd b7       	in	r28, 0x3d	; 61
    1770:	de b7       	in	r29, 0x3e	; 62
	int32_t press = 0;
    1772:	19 82       	std	Y+1, r1	; 0x01
    1774:	1a 82       	std	Y+2, r1	; 0x02
    1776:	1b 82       	std	Y+3, r1	; 0x03
    1778:	1c 82       	std	Y+4, r1	; 0x04
	
	press |= ((int32_t)readFromRegister(REG_PRESS_MSB) << 12);
    177a:	87 ef       	ldi	r24, 0xF7	; 247
    177c:	0e 94 ad 11 	call	0x235a	; 0x235a <readFromRegister>
    1780:	88 2f       	mov	r24, r24
    1782:	90 e0       	ldi	r25, 0x00	; 0
    1784:	a0 e0       	ldi	r26, 0x00	; 0
    1786:	b0 e0       	ldi	r27, 0x00	; 0
    1788:	07 2e       	mov	r0, r23
    178a:	7c e0       	ldi	r23, 0x0C	; 12
    178c:	88 0f       	add	r24, r24
    178e:	99 1f       	adc	r25, r25
    1790:	aa 1f       	adc	r26, r26
    1792:	bb 1f       	adc	r27, r27
    1794:	7a 95       	dec	r23
    1796:	d1 f7       	brne	.-12     	; 0x178c <BME280_get_pressure+0x26>
    1798:	70 2d       	mov	r23, r0
    179a:	29 81       	ldd	r18, Y+1	; 0x01
    179c:	3a 81       	ldd	r19, Y+2	; 0x02
    179e:	4b 81       	ldd	r20, Y+3	; 0x03
    17a0:	5c 81       	ldd	r21, Y+4	; 0x04
    17a2:	82 2b       	or	r24, r18
    17a4:	93 2b       	or	r25, r19
    17a6:	a4 2b       	or	r26, r20
    17a8:	b5 2b       	or	r27, r21
    17aa:	89 83       	std	Y+1, r24	; 0x01
    17ac:	9a 83       	std	Y+2, r25	; 0x02
    17ae:	ab 83       	std	Y+3, r26	; 0x03
    17b0:	bc 83       	std	Y+4, r27	; 0x04
	press |= ((int32_t)readFromRegister(REG_PRESS_LSB) <<  4);
    17b2:	88 ef       	ldi	r24, 0xF8	; 248
    17b4:	0e 94 ad 11 	call	0x235a	; 0x235a <readFromRegister>
    17b8:	88 2f       	mov	r24, r24
    17ba:	90 e0       	ldi	r25, 0x00	; 0
    17bc:	a0 e0       	ldi	r26, 0x00	; 0
    17be:	b0 e0       	ldi	r27, 0x00	; 0
    17c0:	88 0f       	add	r24, r24
    17c2:	99 1f       	adc	r25, r25
    17c4:	aa 1f       	adc	r26, r26
    17c6:	bb 1f       	adc	r27, r27
    17c8:	88 0f       	add	r24, r24
    17ca:	99 1f       	adc	r25, r25
    17cc:	aa 1f       	adc	r26, r26
    17ce:	bb 1f       	adc	r27, r27
    17d0:	88 0f       	add	r24, r24
    17d2:	99 1f       	adc	r25, r25
    17d4:	aa 1f       	adc	r26, r26
    17d6:	bb 1f       	adc	r27, r27
    17d8:	88 0f       	add	r24, r24
    17da:	99 1f       	adc	r25, r25
    17dc:	aa 1f       	adc	r26, r26
    17de:	bb 1f       	adc	r27, r27
    17e0:	9c 01       	movw	r18, r24
    17e2:	ad 01       	movw	r20, r26
    17e4:	89 81       	ldd	r24, Y+1	; 0x01
    17e6:	9a 81       	ldd	r25, Y+2	; 0x02
    17e8:	ab 81       	ldd	r26, Y+3	; 0x03
    17ea:	bc 81       	ldd	r27, Y+4	; 0x04
    17ec:	82 2b       	or	r24, r18
    17ee:	93 2b       	or	r25, r19
    17f0:	a4 2b       	or	r26, r20
    17f2:	b5 2b       	or	r27, r21
    17f4:	89 83       	std	Y+1, r24	; 0x01
    17f6:	9a 83       	std	Y+2, r25	; 0x02
    17f8:	ab 83       	std	Y+3, r26	; 0x03
    17fa:	bc 83       	std	Y+4, r27	; 0x04
	press |= ((int32_t)readFromRegister(REG_PRESS_XLSB) >>  4);
    17fc:	89 ef       	ldi	r24, 0xF9	; 249
    17fe:	0e 94 ad 11 	call	0x235a	; 0x235a <readFromRegister>
    1802:	82 95       	swap	r24
    1804:	8f 70       	andi	r24, 0x0F	; 15
    1806:	88 2f       	mov	r24, r24
    1808:	90 e0       	ldi	r25, 0x00	; 0
    180a:	a0 e0       	ldi	r26, 0x00	; 0
    180c:	b0 e0       	ldi	r27, 0x00	; 0
    180e:	29 81       	ldd	r18, Y+1	; 0x01
    1810:	3a 81       	ldd	r19, Y+2	; 0x02
    1812:	4b 81       	ldd	r20, Y+3	; 0x03
    1814:	5c 81       	ldd	r21, Y+4	; 0x04
    1816:	82 2b       	or	r24, r18
    1818:	93 2b       	or	r25, r19
    181a:	a4 2b       	or	r26, r20
    181c:	b5 2b       	or	r27, r21
    181e:	89 83       	std	Y+1, r24	; 0x01
    1820:	9a 83       	std	Y+2, r25	; 0x02
    1822:	ab 83       	std	Y+3, r26	; 0x03
    1824:	bc 83       	std	Y+4, r27	; 0x04
	
	return BME280_compensate_P_double(press);
    1826:	89 81       	ldd	r24, Y+1	; 0x01
    1828:	9a 81       	ldd	r25, Y+2	; 0x02
    182a:	ab 81       	ldd	r26, Y+3	; 0x03
    182c:	bc 81       	ldd	r27, Y+4	; 0x04
    182e:	bc 01       	movw	r22, r24
    1830:	cd 01       	movw	r24, r26
    1832:	0e 94 a9 0d 	call	0x1b52	; 0x1b52 <BME280_compensate_P_double>
    1836:	dc 01       	movw	r26, r24
    1838:	cb 01       	movw	r24, r22
}
    183a:	bc 01       	movw	r22, r24
    183c:	cd 01       	movw	r24, r26
    183e:	0f 90       	pop	r0
    1840:	0f 90       	pop	r0
    1842:	0f 90       	pop	r0
    1844:	0f 90       	pop	r0
    1846:	df 91       	pop	r29
    1848:	cf 91       	pop	r28
    184a:	08 95       	ret

0000184c <BME280_get_humidity>:

double BME280_get_humidity()
{
    184c:	cf 93       	push	r28
    184e:	df 93       	push	r29
    1850:	00 d0       	rcall	.+0      	; 0x1852 <BME280_get_humidity+0x6>
    1852:	00 d0       	rcall	.+0      	; 0x1854 <BME280_get_humidity+0x8>
    1854:	cd b7       	in	r28, 0x3d	; 61
    1856:	de b7       	in	r29, 0x3e	; 62
	int32_t hum = 0;
    1858:	19 82       	std	Y+1, r1	; 0x01
    185a:	1a 82       	std	Y+2, r1	; 0x02
    185c:	1b 82       	std	Y+3, r1	; 0x03
    185e:	1c 82       	std	Y+4, r1	; 0x04
	
	hum |= ((int32_t)readFromRegister(REG_HUM_MSB) << 8);
    1860:	8d ef       	ldi	r24, 0xFD	; 253
    1862:	0e 94 ad 11 	call	0x235a	; 0x235a <readFromRegister>
    1866:	88 2f       	mov	r24, r24
    1868:	90 e0       	ldi	r25, 0x00	; 0
    186a:	a0 e0       	ldi	r26, 0x00	; 0
    186c:	b0 e0       	ldi	r27, 0x00	; 0
    186e:	ba 2f       	mov	r27, r26
    1870:	a9 2f       	mov	r26, r25
    1872:	98 2f       	mov	r25, r24
    1874:	88 27       	eor	r24, r24
    1876:	29 81       	ldd	r18, Y+1	; 0x01
    1878:	3a 81       	ldd	r19, Y+2	; 0x02
    187a:	4b 81       	ldd	r20, Y+3	; 0x03
    187c:	5c 81       	ldd	r21, Y+4	; 0x04
    187e:	82 2b       	or	r24, r18
    1880:	93 2b       	or	r25, r19
    1882:	a4 2b       	or	r26, r20
    1884:	b5 2b       	or	r27, r21
    1886:	89 83       	std	Y+1, r24	; 0x01
    1888:	9a 83       	std	Y+2, r25	; 0x02
    188a:	ab 83       	std	Y+3, r26	; 0x03
    188c:	bc 83       	std	Y+4, r27	; 0x04
	hum |= (int32_t)readFromRegister(REG_HUM_LSB);
    188e:	8e ef       	ldi	r24, 0xFE	; 254
    1890:	0e 94 ad 11 	call	0x235a	; 0x235a <readFromRegister>
    1894:	88 2f       	mov	r24, r24
    1896:	90 e0       	ldi	r25, 0x00	; 0
    1898:	a0 e0       	ldi	r26, 0x00	; 0
    189a:	b0 e0       	ldi	r27, 0x00	; 0
    189c:	29 81       	ldd	r18, Y+1	; 0x01
    189e:	3a 81       	ldd	r19, Y+2	; 0x02
    18a0:	4b 81       	ldd	r20, Y+3	; 0x03
    18a2:	5c 81       	ldd	r21, Y+4	; 0x04
    18a4:	82 2b       	or	r24, r18
    18a6:	93 2b       	or	r25, r19
    18a8:	a4 2b       	or	r26, r20
    18aa:	b5 2b       	or	r27, r21
    18ac:	89 83       	std	Y+1, r24	; 0x01
    18ae:	9a 83       	std	Y+2, r25	; 0x02
    18b0:	ab 83       	std	Y+3, r26	; 0x03
    18b2:	bc 83       	std	Y+4, r27	; 0x04
	
	return BME280_compensate_H_double(hum);
    18b4:	89 81       	ldd	r24, Y+1	; 0x01
    18b6:	9a 81       	ldd	r25, Y+2	; 0x02
    18b8:	ab 81       	ldd	r26, Y+3	; 0x03
    18ba:	bc 81       	ldd	r27, Y+4	; 0x04
    18bc:	bc 01       	movw	r22, r24
    18be:	cd 01       	movw	r24, r26
    18c0:	0e 94 f8 0f 	call	0x1ff0	; 0x1ff0 <BME280_compensate_H_double>
    18c4:	dc 01       	movw	r26, r24
    18c6:	cb 01       	movw	r24, r22
}
    18c8:	bc 01       	movw	r22, r24
    18ca:	cd 01       	movw	r24, r26
    18cc:	0f 90       	pop	r0
    18ce:	0f 90       	pop	r0
    18d0:	0f 90       	pop	r0
    18d2:	0f 90       	pop	r0
    18d4:	df 91       	pop	r29
    18d6:	cf 91       	pop	r28
    18d8:	08 95       	ret

000018da <BME280_compensate_T_double>:

// from Bosch Sensortec [datasheet]
double BME280_compensate_T_double(int32_t adc_T)
{
    18da:	8f 92       	push	r8
    18dc:	9f 92       	push	r9
    18de:	af 92       	push	r10
    18e0:	bf 92       	push	r11
    18e2:	cf 92       	push	r12
    18e4:	df 92       	push	r13
    18e6:	ef 92       	push	r14
    18e8:	ff 92       	push	r15
    18ea:	cf 93       	push	r28
    18ec:	df 93       	push	r29
    18ee:	cd b7       	in	r28, 0x3d	; 61
    18f0:	de b7       	in	r29, 0x3e	; 62
    18f2:	60 97       	sbiw	r28, 0x10	; 16
    18f4:	0f b6       	in	r0, 0x3f	; 63
    18f6:	f8 94       	cli
    18f8:	de bf       	out	0x3e, r29	; 62
    18fa:	0f be       	out	0x3f, r0	; 63
    18fc:	cd bf       	out	0x3d, r28	; 61
    18fe:	6d 87       	std	Y+13, r22	; 0x0d
    1900:	7e 87       	std	Y+14, r23	; 0x0e
    1902:	8f 87       	std	Y+15, r24	; 0x0f
    1904:	98 8b       	std	Y+16, r25	; 0x10
	double var1, var2, T;
	var1 = (((double)adc_T)/16384.0 - ((double)dig_T1)/1024.0) * ((double)dig_T2);
    1906:	6d 85       	ldd	r22, Y+13	; 0x0d
    1908:	7e 85       	ldd	r23, Y+14	; 0x0e
    190a:	8f 85       	ldd	r24, Y+15	; 0x0f
    190c:	98 89       	ldd	r25, Y+16	; 0x10
    190e:	0e 94 32 12 	call	0x2464	; 0x2464 <__floatsisf>
    1912:	dc 01       	movw	r26, r24
    1914:	cb 01       	movw	r24, r22
    1916:	20 e0       	ldi	r18, 0x00	; 0
    1918:	30 e0       	ldi	r19, 0x00	; 0
    191a:	40 e8       	ldi	r20, 0x80	; 128
    191c:	56 e4       	ldi	r21, 0x46	; 70
    191e:	bc 01       	movw	r22, r24
    1920:	cd 01       	movw	r24, r26
    1922:	0e 94 ec 01 	call	0x3d8	; 0x3d8 <__divsf3>
    1926:	dc 01       	movw	r26, r24
    1928:	cb 01       	movw	r24, r22
    192a:	6c 01       	movw	r12, r24
    192c:	7d 01       	movw	r14, r26
    192e:	80 91 11 01 	lds	r24, 0x0111	; 0x800111 <dig_T1>
    1932:	90 91 12 01 	lds	r25, 0x0112	; 0x800112 <dig_T1+0x1>
    1936:	cc 01       	movw	r24, r24
    1938:	a0 e0       	ldi	r26, 0x00	; 0
    193a:	b0 e0       	ldi	r27, 0x00	; 0
    193c:	bc 01       	movw	r22, r24
    193e:	cd 01       	movw	r24, r26
    1940:	0e 94 30 12 	call	0x2460	; 0x2460 <__floatunsisf>
    1944:	dc 01       	movw	r26, r24
    1946:	cb 01       	movw	r24, r22
    1948:	20 e0       	ldi	r18, 0x00	; 0
    194a:	30 e0       	ldi	r19, 0x00	; 0
    194c:	40 e8       	ldi	r20, 0x80	; 128
    194e:	54 e4       	ldi	r21, 0x44	; 68
    1950:	bc 01       	movw	r22, r24
    1952:	cd 01       	movw	r24, r26
    1954:	0e 94 ec 01 	call	0x3d8	; 0x3d8 <__divsf3>
    1958:	dc 01       	movw	r26, r24
    195a:	cb 01       	movw	r24, r22
    195c:	9c 01       	movw	r18, r24
    195e:	ad 01       	movw	r20, r26
    1960:	c7 01       	movw	r24, r14
    1962:	b6 01       	movw	r22, r12
    1964:	0e 94 bc 11 	call	0x2378	; 0x2378 <__subsf3>
    1968:	dc 01       	movw	r26, r24
    196a:	cb 01       	movw	r24, r22
    196c:	6c 01       	movw	r12, r24
    196e:	7d 01       	movw	r14, r26
    1970:	80 91 15 01 	lds	r24, 0x0115	; 0x800115 <dig_T2>
    1974:	90 91 16 01 	lds	r25, 0x0116	; 0x800116 <dig_T2+0x1>
    1978:	09 2e       	mov	r0, r25
    197a:	00 0c       	add	r0, r0
    197c:	aa 0b       	sbc	r26, r26
    197e:	bb 0b       	sbc	r27, r27
    1980:	bc 01       	movw	r22, r24
    1982:	cd 01       	movw	r24, r26
    1984:	0e 94 32 12 	call	0x2464	; 0x2464 <__floatsisf>
    1988:	dc 01       	movw	r26, r24
    198a:	cb 01       	movw	r24, r22
    198c:	9c 01       	movw	r18, r24
    198e:	ad 01       	movw	r20, r26
    1990:	c7 01       	movw	r24, r14
    1992:	b6 01       	movw	r22, r12
    1994:	0e 94 07 03 	call	0x60e	; 0x60e <__mulsf3>
    1998:	dc 01       	movw	r26, r24
    199a:	cb 01       	movw	r24, r22
    199c:	89 83       	std	Y+1, r24	; 0x01
    199e:	9a 83       	std	Y+2, r25	; 0x02
    19a0:	ab 83       	std	Y+3, r26	; 0x03
    19a2:	bc 83       	std	Y+4, r27	; 0x04
	var2 = ((((double)adc_T)/131072.0 - ((double)dig_T1)/8192.0) * (((double)adc_T)/131072.0 - ((double) dig_T1)/8192.0)) * ((double)dig_T3);
    19a4:	6d 85       	ldd	r22, Y+13	; 0x0d
    19a6:	7e 85       	ldd	r23, Y+14	; 0x0e
    19a8:	8f 85       	ldd	r24, Y+15	; 0x0f
    19aa:	98 89       	ldd	r25, Y+16	; 0x10
    19ac:	0e 94 32 12 	call	0x2464	; 0x2464 <__floatsisf>
    19b0:	dc 01       	movw	r26, r24
    19b2:	cb 01       	movw	r24, r22
    19b4:	20 e0       	ldi	r18, 0x00	; 0
    19b6:	30 e0       	ldi	r19, 0x00	; 0
    19b8:	40 e0       	ldi	r20, 0x00	; 0
    19ba:	58 e4       	ldi	r21, 0x48	; 72
    19bc:	bc 01       	movw	r22, r24
    19be:	cd 01       	movw	r24, r26
    19c0:	0e 94 ec 01 	call	0x3d8	; 0x3d8 <__divsf3>
    19c4:	dc 01       	movw	r26, r24
    19c6:	cb 01       	movw	r24, r22
    19c8:	6c 01       	movw	r12, r24
    19ca:	7d 01       	movw	r14, r26
    19cc:	80 91 11 01 	lds	r24, 0x0111	; 0x800111 <dig_T1>
    19d0:	90 91 12 01 	lds	r25, 0x0112	; 0x800112 <dig_T1+0x1>
    19d4:	cc 01       	movw	r24, r24
    19d6:	a0 e0       	ldi	r26, 0x00	; 0
    19d8:	b0 e0       	ldi	r27, 0x00	; 0
    19da:	bc 01       	movw	r22, r24
    19dc:	cd 01       	movw	r24, r26
    19de:	0e 94 30 12 	call	0x2460	; 0x2460 <__floatunsisf>
    19e2:	dc 01       	movw	r26, r24
    19e4:	cb 01       	movw	r24, r22
    19e6:	20 e0       	ldi	r18, 0x00	; 0
    19e8:	30 e0       	ldi	r19, 0x00	; 0
    19ea:	40 e0       	ldi	r20, 0x00	; 0
    19ec:	56 e4       	ldi	r21, 0x46	; 70
    19ee:	bc 01       	movw	r22, r24
    19f0:	cd 01       	movw	r24, r26
    19f2:	0e 94 ec 01 	call	0x3d8	; 0x3d8 <__divsf3>
    19f6:	dc 01       	movw	r26, r24
    19f8:	cb 01       	movw	r24, r22
    19fa:	9c 01       	movw	r18, r24
    19fc:	ad 01       	movw	r20, r26
    19fe:	c7 01       	movw	r24, r14
    1a00:	b6 01       	movw	r22, r12
    1a02:	0e 94 bc 11 	call	0x2378	; 0x2378 <__subsf3>
    1a06:	dc 01       	movw	r26, r24
    1a08:	cb 01       	movw	r24, r22
    1a0a:	6c 01       	movw	r12, r24
    1a0c:	7d 01       	movw	r14, r26
    1a0e:	6d 85       	ldd	r22, Y+13	; 0x0d
    1a10:	7e 85       	ldd	r23, Y+14	; 0x0e
    1a12:	8f 85       	ldd	r24, Y+15	; 0x0f
    1a14:	98 89       	ldd	r25, Y+16	; 0x10
    1a16:	0e 94 32 12 	call	0x2464	; 0x2464 <__floatsisf>
    1a1a:	dc 01       	movw	r26, r24
    1a1c:	cb 01       	movw	r24, r22
    1a1e:	20 e0       	ldi	r18, 0x00	; 0
    1a20:	30 e0       	ldi	r19, 0x00	; 0
    1a22:	40 e0       	ldi	r20, 0x00	; 0
    1a24:	58 e4       	ldi	r21, 0x48	; 72
    1a26:	bc 01       	movw	r22, r24
    1a28:	cd 01       	movw	r24, r26
    1a2a:	0e 94 ec 01 	call	0x3d8	; 0x3d8 <__divsf3>
    1a2e:	dc 01       	movw	r26, r24
    1a30:	cb 01       	movw	r24, r22
    1a32:	4c 01       	movw	r8, r24
    1a34:	5d 01       	movw	r10, r26
    1a36:	80 91 11 01 	lds	r24, 0x0111	; 0x800111 <dig_T1>
    1a3a:	90 91 12 01 	lds	r25, 0x0112	; 0x800112 <dig_T1+0x1>
    1a3e:	cc 01       	movw	r24, r24
    1a40:	a0 e0       	ldi	r26, 0x00	; 0
    1a42:	b0 e0       	ldi	r27, 0x00	; 0
    1a44:	bc 01       	movw	r22, r24
    1a46:	cd 01       	movw	r24, r26
    1a48:	0e 94 30 12 	call	0x2460	; 0x2460 <__floatunsisf>
    1a4c:	dc 01       	movw	r26, r24
    1a4e:	cb 01       	movw	r24, r22
    1a50:	20 e0       	ldi	r18, 0x00	; 0
    1a52:	30 e0       	ldi	r19, 0x00	; 0
    1a54:	40 e0       	ldi	r20, 0x00	; 0
    1a56:	56 e4       	ldi	r21, 0x46	; 70
    1a58:	bc 01       	movw	r22, r24
    1a5a:	cd 01       	movw	r24, r26
    1a5c:	0e 94 ec 01 	call	0x3d8	; 0x3d8 <__divsf3>
    1a60:	dc 01       	movw	r26, r24
    1a62:	cb 01       	movw	r24, r22
    1a64:	9c 01       	movw	r18, r24
    1a66:	ad 01       	movw	r20, r26
    1a68:	c5 01       	movw	r24, r10
    1a6a:	b4 01       	movw	r22, r8
    1a6c:	0e 94 bc 11 	call	0x2378	; 0x2378 <__subsf3>
    1a70:	dc 01       	movw	r26, r24
    1a72:	cb 01       	movw	r24, r22
    1a74:	9c 01       	movw	r18, r24
    1a76:	ad 01       	movw	r20, r26
    1a78:	c7 01       	movw	r24, r14
    1a7a:	b6 01       	movw	r22, r12
    1a7c:	0e 94 07 03 	call	0x60e	; 0x60e <__mulsf3>
    1a80:	dc 01       	movw	r26, r24
    1a82:	cb 01       	movw	r24, r22
    1a84:	6c 01       	movw	r12, r24
    1a86:	7d 01       	movw	r14, r26
    1a88:	80 91 2a 01 	lds	r24, 0x012A	; 0x80012a <dig_T3>
    1a8c:	90 91 2b 01 	lds	r25, 0x012B	; 0x80012b <dig_T3+0x1>
    1a90:	09 2e       	mov	r0, r25
    1a92:	00 0c       	add	r0, r0
    1a94:	aa 0b       	sbc	r26, r26
    1a96:	bb 0b       	sbc	r27, r27
    1a98:	bc 01       	movw	r22, r24
    1a9a:	cd 01       	movw	r24, r26
    1a9c:	0e 94 32 12 	call	0x2464	; 0x2464 <__floatsisf>
    1aa0:	dc 01       	movw	r26, r24
    1aa2:	cb 01       	movw	r24, r22
    1aa4:	9c 01       	movw	r18, r24
    1aa6:	ad 01       	movw	r20, r26
    1aa8:	c7 01       	movw	r24, r14
    1aaa:	b6 01       	movw	r22, r12
    1aac:	0e 94 07 03 	call	0x60e	; 0x60e <__mulsf3>
    1ab0:	dc 01       	movw	r26, r24
    1ab2:	cb 01       	movw	r24, r22
    1ab4:	8d 83       	std	Y+5, r24	; 0x05
    1ab6:	9e 83       	std	Y+6, r25	; 0x06
    1ab8:	af 83       	std	Y+7, r26	; 0x07
    1aba:	b8 87       	std	Y+8, r27	; 0x08
	t_fine = (int32_t)(var1 + var2);
    1abc:	2d 81       	ldd	r18, Y+5	; 0x05
    1abe:	3e 81       	ldd	r19, Y+6	; 0x06
    1ac0:	4f 81       	ldd	r20, Y+7	; 0x07
    1ac2:	58 85       	ldd	r21, Y+8	; 0x08
    1ac4:	69 81       	ldd	r22, Y+1	; 0x01
    1ac6:	7a 81       	ldd	r23, Y+2	; 0x02
    1ac8:	8b 81       	ldd	r24, Y+3	; 0x03
    1aca:	9c 81       	ldd	r25, Y+4	; 0x04
    1acc:	0e 94 bd 11 	call	0x237a	; 0x237a <__addsf3>
    1ad0:	dc 01       	movw	r26, r24
    1ad2:	cb 01       	movw	r24, r22
    1ad4:	bc 01       	movw	r22, r24
    1ad6:	cd 01       	movw	r24, r26
    1ad8:	0e 94 29 12 	call	0x2452	; 0x2452 <__fixsfsi>
    1adc:	dc 01       	movw	r26, r24
    1ade:	cb 01       	movw	r24, r22
    1ae0:	80 93 30 01 	sts	0x0130, r24	; 0x800130 <t_fine>
    1ae4:	90 93 31 01 	sts	0x0131, r25	; 0x800131 <t_fine+0x1>
    1ae8:	a0 93 32 01 	sts	0x0132, r26	; 0x800132 <t_fine+0x2>
    1aec:	b0 93 33 01 	sts	0x0133, r27	; 0x800133 <t_fine+0x3>
	T = (var1 + var2) / 5120.0;
    1af0:	2d 81       	ldd	r18, Y+5	; 0x05
    1af2:	3e 81       	ldd	r19, Y+6	; 0x06
    1af4:	4f 81       	ldd	r20, Y+7	; 0x07
    1af6:	58 85       	ldd	r21, Y+8	; 0x08
    1af8:	69 81       	ldd	r22, Y+1	; 0x01
    1afa:	7a 81       	ldd	r23, Y+2	; 0x02
    1afc:	8b 81       	ldd	r24, Y+3	; 0x03
    1afe:	9c 81       	ldd	r25, Y+4	; 0x04
    1b00:	0e 94 bd 11 	call	0x237a	; 0x237a <__addsf3>
    1b04:	dc 01       	movw	r26, r24
    1b06:	cb 01       	movw	r24, r22
    1b08:	20 e0       	ldi	r18, 0x00	; 0
    1b0a:	30 e0       	ldi	r19, 0x00	; 0
    1b0c:	40 ea       	ldi	r20, 0xA0	; 160
    1b0e:	55 e4       	ldi	r21, 0x45	; 69
    1b10:	bc 01       	movw	r22, r24
    1b12:	cd 01       	movw	r24, r26
    1b14:	0e 94 ec 01 	call	0x3d8	; 0x3d8 <__divsf3>
    1b18:	dc 01       	movw	r26, r24
    1b1a:	cb 01       	movw	r24, r22
    1b1c:	89 87       	std	Y+9, r24	; 0x09
    1b1e:	9a 87       	std	Y+10, r25	; 0x0a
    1b20:	ab 87       	std	Y+11, r26	; 0x0b
    1b22:	bc 87       	std	Y+12, r27	; 0x0c
	return T;
    1b24:	89 85       	ldd	r24, Y+9	; 0x09
    1b26:	9a 85       	ldd	r25, Y+10	; 0x0a
    1b28:	ab 85       	ldd	r26, Y+11	; 0x0b
    1b2a:	bc 85       	ldd	r27, Y+12	; 0x0c
}
    1b2c:	bc 01       	movw	r22, r24
    1b2e:	cd 01       	movw	r24, r26
    1b30:	60 96       	adiw	r28, 0x10	; 16
    1b32:	0f b6       	in	r0, 0x3f	; 63
    1b34:	f8 94       	cli
    1b36:	de bf       	out	0x3e, r29	; 62
    1b38:	0f be       	out	0x3f, r0	; 63
    1b3a:	cd bf       	out	0x3d, r28	; 61
    1b3c:	df 91       	pop	r29
    1b3e:	cf 91       	pop	r28
    1b40:	ff 90       	pop	r15
    1b42:	ef 90       	pop	r14
    1b44:	df 90       	pop	r13
    1b46:	cf 90       	pop	r12
    1b48:	bf 90       	pop	r11
    1b4a:	af 90       	pop	r10
    1b4c:	9f 90       	pop	r9
    1b4e:	8f 90       	pop	r8
    1b50:	08 95       	ret

00001b52 <BME280_compensate_P_double>:

double BME280_compensate_P_double(int32_t adc_P)
{
    1b52:	cf 92       	push	r12
    1b54:	df 92       	push	r13
    1b56:	ef 92       	push	r14
    1b58:	ff 92       	push	r15
    1b5a:	cf 93       	push	r28
    1b5c:	df 93       	push	r29
    1b5e:	cd b7       	in	r28, 0x3d	; 61
    1b60:	de b7       	in	r29, 0x3e	; 62
    1b62:	60 97       	sbiw	r28, 0x10	; 16
    1b64:	0f b6       	in	r0, 0x3f	; 63
    1b66:	f8 94       	cli
    1b68:	de bf       	out	0x3e, r29	; 62
    1b6a:	0f be       	out	0x3f, r0	; 63
    1b6c:	cd bf       	out	0x3d, r28	; 61
    1b6e:	6d 87       	std	Y+13, r22	; 0x0d
    1b70:	7e 87       	std	Y+14, r23	; 0x0e
    1b72:	8f 87       	std	Y+15, r24	; 0x0f
    1b74:	98 8b       	std	Y+16, r25	; 0x10
	double var1, var2, p;
	var1 = ((double)t_fine/2.0) - 64000.0;
    1b76:	80 91 30 01 	lds	r24, 0x0130	; 0x800130 <t_fine>
    1b7a:	90 91 31 01 	lds	r25, 0x0131	; 0x800131 <t_fine+0x1>
    1b7e:	a0 91 32 01 	lds	r26, 0x0132	; 0x800132 <t_fine+0x2>
    1b82:	b0 91 33 01 	lds	r27, 0x0133	; 0x800133 <t_fine+0x3>
    1b86:	bc 01       	movw	r22, r24
    1b88:	cd 01       	movw	r24, r26
    1b8a:	0e 94 32 12 	call	0x2464	; 0x2464 <__floatsisf>
    1b8e:	dc 01       	movw	r26, r24
    1b90:	cb 01       	movw	r24, r22
    1b92:	20 e0       	ldi	r18, 0x00	; 0
    1b94:	30 e0       	ldi	r19, 0x00	; 0
    1b96:	40 e0       	ldi	r20, 0x00	; 0
    1b98:	50 e4       	ldi	r21, 0x40	; 64
    1b9a:	bc 01       	movw	r22, r24
    1b9c:	cd 01       	movw	r24, r26
    1b9e:	0e 94 ec 01 	call	0x3d8	; 0x3d8 <__divsf3>
    1ba2:	dc 01       	movw	r26, r24
    1ba4:	cb 01       	movw	r24, r22
    1ba6:	20 e0       	ldi	r18, 0x00	; 0
    1ba8:	30 e0       	ldi	r19, 0x00	; 0
    1baa:	4a e7       	ldi	r20, 0x7A	; 122
    1bac:	57 e4       	ldi	r21, 0x47	; 71
    1bae:	bc 01       	movw	r22, r24
    1bb0:	cd 01       	movw	r24, r26
    1bb2:	0e 94 bc 11 	call	0x2378	; 0x2378 <__subsf3>
    1bb6:	dc 01       	movw	r26, r24
    1bb8:	cb 01       	movw	r24, r22
    1bba:	89 83       	std	Y+1, r24	; 0x01
    1bbc:	9a 83       	std	Y+2, r25	; 0x02
    1bbe:	ab 83       	std	Y+3, r26	; 0x03
    1bc0:	bc 83       	std	Y+4, r27	; 0x04
	var2 = var1 * var1 * ((double)dig_P6) / 32768.0;
    1bc2:	29 81       	ldd	r18, Y+1	; 0x01
    1bc4:	3a 81       	ldd	r19, Y+2	; 0x02
    1bc6:	4b 81       	ldd	r20, Y+3	; 0x03
    1bc8:	5c 81       	ldd	r21, Y+4	; 0x04
    1bca:	69 81       	ldd	r22, Y+1	; 0x01
    1bcc:	7a 81       	ldd	r23, Y+2	; 0x02
    1bce:	8b 81       	ldd	r24, Y+3	; 0x03
    1bd0:	9c 81       	ldd	r25, Y+4	; 0x04
    1bd2:	0e 94 07 03 	call	0x60e	; 0x60e <__mulsf3>
    1bd6:	dc 01       	movw	r26, r24
    1bd8:	cb 01       	movw	r24, r22
    1bda:	6c 01       	movw	r12, r24
    1bdc:	7d 01       	movw	r14, r26
    1bde:	80 91 2c 01 	lds	r24, 0x012C	; 0x80012c <dig_P6>
    1be2:	90 91 2d 01 	lds	r25, 0x012D	; 0x80012d <dig_P6+0x1>
    1be6:	09 2e       	mov	r0, r25
    1be8:	00 0c       	add	r0, r0
    1bea:	aa 0b       	sbc	r26, r26
    1bec:	bb 0b       	sbc	r27, r27
    1bee:	bc 01       	movw	r22, r24
    1bf0:	cd 01       	movw	r24, r26
    1bf2:	0e 94 32 12 	call	0x2464	; 0x2464 <__floatsisf>
    1bf6:	dc 01       	movw	r26, r24
    1bf8:	cb 01       	movw	r24, r22
    1bfa:	9c 01       	movw	r18, r24
    1bfc:	ad 01       	movw	r20, r26
    1bfe:	c7 01       	movw	r24, r14
    1c00:	b6 01       	movw	r22, r12
    1c02:	0e 94 07 03 	call	0x60e	; 0x60e <__mulsf3>
    1c06:	dc 01       	movw	r26, r24
    1c08:	cb 01       	movw	r24, r22
    1c0a:	20 e0       	ldi	r18, 0x00	; 0
    1c0c:	30 e0       	ldi	r19, 0x00	; 0
    1c0e:	40 e0       	ldi	r20, 0x00	; 0
    1c10:	57 e4       	ldi	r21, 0x47	; 71
    1c12:	bc 01       	movw	r22, r24
    1c14:	cd 01       	movw	r24, r26
    1c16:	0e 94 ec 01 	call	0x3d8	; 0x3d8 <__divsf3>
    1c1a:	dc 01       	movw	r26, r24
    1c1c:	cb 01       	movw	r24, r22
    1c1e:	8d 83       	std	Y+5, r24	; 0x05
    1c20:	9e 83       	std	Y+6, r25	; 0x06
    1c22:	af 83       	std	Y+7, r26	; 0x07
    1c24:	b8 87       	std	Y+8, r27	; 0x08
	var2 = var2 + var1 * ((double)dig_P5) * 2.0;
    1c26:	80 91 1d 01 	lds	r24, 0x011D	; 0x80011d <dig_P5>
    1c2a:	90 91 1e 01 	lds	r25, 0x011E	; 0x80011e <dig_P5+0x1>
    1c2e:	09 2e       	mov	r0, r25
    1c30:	00 0c       	add	r0, r0
    1c32:	aa 0b       	sbc	r26, r26
    1c34:	bb 0b       	sbc	r27, r27
    1c36:	bc 01       	movw	r22, r24
    1c38:	cd 01       	movw	r24, r26
    1c3a:	0e 94 32 12 	call	0x2464	; 0x2464 <__floatsisf>
    1c3e:	dc 01       	movw	r26, r24
    1c40:	cb 01       	movw	r24, r22
    1c42:	29 81       	ldd	r18, Y+1	; 0x01
    1c44:	3a 81       	ldd	r19, Y+2	; 0x02
    1c46:	4b 81       	ldd	r20, Y+3	; 0x03
    1c48:	5c 81       	ldd	r21, Y+4	; 0x04
    1c4a:	bc 01       	movw	r22, r24
    1c4c:	cd 01       	movw	r24, r26
    1c4e:	0e 94 07 03 	call	0x60e	; 0x60e <__mulsf3>
    1c52:	dc 01       	movw	r26, r24
    1c54:	cb 01       	movw	r24, r22
    1c56:	9c 01       	movw	r18, r24
    1c58:	ad 01       	movw	r20, r26
    1c5a:	bc 01       	movw	r22, r24
    1c5c:	cd 01       	movw	r24, r26
    1c5e:	0e 94 bd 11 	call	0x237a	; 0x237a <__addsf3>
    1c62:	dc 01       	movw	r26, r24
    1c64:	cb 01       	movw	r24, r22
    1c66:	9c 01       	movw	r18, r24
    1c68:	ad 01       	movw	r20, r26
    1c6a:	6d 81       	ldd	r22, Y+5	; 0x05
    1c6c:	7e 81       	ldd	r23, Y+6	; 0x06
    1c6e:	8f 81       	ldd	r24, Y+7	; 0x07
    1c70:	98 85       	ldd	r25, Y+8	; 0x08
    1c72:	0e 94 bd 11 	call	0x237a	; 0x237a <__addsf3>
    1c76:	dc 01       	movw	r26, r24
    1c78:	cb 01       	movw	r24, r22
    1c7a:	8d 83       	std	Y+5, r24	; 0x05
    1c7c:	9e 83       	std	Y+6, r25	; 0x06
    1c7e:	af 83       	std	Y+7, r26	; 0x07
    1c80:	b8 87       	std	Y+8, r27	; 0x08
	var2 = (var2/4.0)+(((double)dig_P4) * 65536.0);
    1c82:	20 e0       	ldi	r18, 0x00	; 0
    1c84:	30 e0       	ldi	r19, 0x00	; 0
    1c86:	40 e8       	ldi	r20, 0x80	; 128
    1c88:	50 e4       	ldi	r21, 0x40	; 64
    1c8a:	6d 81       	ldd	r22, Y+5	; 0x05
    1c8c:	7e 81       	ldd	r23, Y+6	; 0x06
    1c8e:	8f 81       	ldd	r24, Y+7	; 0x07
    1c90:	98 85       	ldd	r25, Y+8	; 0x08
    1c92:	0e 94 ec 01 	call	0x3d8	; 0x3d8 <__divsf3>
    1c96:	dc 01       	movw	r26, r24
    1c98:	cb 01       	movw	r24, r22
    1c9a:	6c 01       	movw	r12, r24
    1c9c:	7d 01       	movw	r14, r26
    1c9e:	80 91 1a 01 	lds	r24, 0x011A	; 0x80011a <dig_P4>
    1ca2:	90 91 1b 01 	lds	r25, 0x011B	; 0x80011b <dig_P4+0x1>
    1ca6:	09 2e       	mov	r0, r25
    1ca8:	00 0c       	add	r0, r0
    1caa:	aa 0b       	sbc	r26, r26
    1cac:	bb 0b       	sbc	r27, r27
    1cae:	bc 01       	movw	r22, r24
    1cb0:	cd 01       	movw	r24, r26
    1cb2:	0e 94 32 12 	call	0x2464	; 0x2464 <__floatsisf>
    1cb6:	dc 01       	movw	r26, r24
    1cb8:	cb 01       	movw	r24, r22
    1cba:	20 e0       	ldi	r18, 0x00	; 0
    1cbc:	30 e0       	ldi	r19, 0x00	; 0
    1cbe:	40 e8       	ldi	r20, 0x80	; 128
    1cc0:	57 e4       	ldi	r21, 0x47	; 71
    1cc2:	bc 01       	movw	r22, r24
    1cc4:	cd 01       	movw	r24, r26
    1cc6:	0e 94 07 03 	call	0x60e	; 0x60e <__mulsf3>
    1cca:	dc 01       	movw	r26, r24
    1ccc:	cb 01       	movw	r24, r22
    1cce:	9c 01       	movw	r18, r24
    1cd0:	ad 01       	movw	r20, r26
    1cd2:	c7 01       	movw	r24, r14
    1cd4:	b6 01       	movw	r22, r12
    1cd6:	0e 94 bd 11 	call	0x237a	; 0x237a <__addsf3>
    1cda:	dc 01       	movw	r26, r24
    1cdc:	cb 01       	movw	r24, r22
    1cde:	8d 83       	std	Y+5, r24	; 0x05
    1ce0:	9e 83       	std	Y+6, r25	; 0x06
    1ce2:	af 83       	std	Y+7, r26	; 0x07
    1ce4:	b8 87       	std	Y+8, r27	; 0x08
	var1 = (((double)dig_P3) * var1 * var1 / 524288.0 + ((double)dig_P2) * var1) / 524288.0;
    1ce6:	80 91 21 01 	lds	r24, 0x0121	; 0x800121 <dig_P3>
    1cea:	90 91 22 01 	lds	r25, 0x0122	; 0x800122 <dig_P3+0x1>
    1cee:	09 2e       	mov	r0, r25
    1cf0:	00 0c       	add	r0, r0
    1cf2:	aa 0b       	sbc	r26, r26
    1cf4:	bb 0b       	sbc	r27, r27
    1cf6:	bc 01       	movw	r22, r24
    1cf8:	cd 01       	movw	r24, r26
    1cfa:	0e 94 32 12 	call	0x2464	; 0x2464 <__floatsisf>
    1cfe:	dc 01       	movw	r26, r24
    1d00:	cb 01       	movw	r24, r22
    1d02:	29 81       	ldd	r18, Y+1	; 0x01
    1d04:	3a 81       	ldd	r19, Y+2	; 0x02
    1d06:	4b 81       	ldd	r20, Y+3	; 0x03
    1d08:	5c 81       	ldd	r21, Y+4	; 0x04
    1d0a:	bc 01       	movw	r22, r24
    1d0c:	cd 01       	movw	r24, r26
    1d0e:	0e 94 07 03 	call	0x60e	; 0x60e <__mulsf3>
    1d12:	dc 01       	movw	r26, r24
    1d14:	cb 01       	movw	r24, r22
    1d16:	29 81       	ldd	r18, Y+1	; 0x01
    1d18:	3a 81       	ldd	r19, Y+2	; 0x02
    1d1a:	4b 81       	ldd	r20, Y+3	; 0x03
    1d1c:	5c 81       	ldd	r21, Y+4	; 0x04
    1d1e:	bc 01       	movw	r22, r24
    1d20:	cd 01       	movw	r24, r26
    1d22:	0e 94 07 03 	call	0x60e	; 0x60e <__mulsf3>
    1d26:	dc 01       	movw	r26, r24
    1d28:	cb 01       	movw	r24, r22
    1d2a:	20 e0       	ldi	r18, 0x00	; 0
    1d2c:	30 e0       	ldi	r19, 0x00	; 0
    1d2e:	40 e0       	ldi	r20, 0x00	; 0
    1d30:	59 e4       	ldi	r21, 0x49	; 73
    1d32:	bc 01       	movw	r22, r24
    1d34:	cd 01       	movw	r24, r26
    1d36:	0e 94 ec 01 	call	0x3d8	; 0x3d8 <__divsf3>
    1d3a:	dc 01       	movw	r26, r24
    1d3c:	cb 01       	movw	r24, r22
    1d3e:	6c 01       	movw	r12, r24
    1d40:	7d 01       	movw	r14, r26
    1d42:	80 91 18 01 	lds	r24, 0x0118	; 0x800118 <dig_P2>
    1d46:	90 91 19 01 	lds	r25, 0x0119	; 0x800119 <dig_P2+0x1>
    1d4a:	09 2e       	mov	r0, r25
    1d4c:	00 0c       	add	r0, r0
    1d4e:	aa 0b       	sbc	r26, r26
    1d50:	bb 0b       	sbc	r27, r27
    1d52:	bc 01       	movw	r22, r24
    1d54:	cd 01       	movw	r24, r26
    1d56:	0e 94 32 12 	call	0x2464	; 0x2464 <__floatsisf>
    1d5a:	dc 01       	movw	r26, r24
    1d5c:	cb 01       	movw	r24, r22
    1d5e:	29 81       	ldd	r18, Y+1	; 0x01
    1d60:	3a 81       	ldd	r19, Y+2	; 0x02
    1d62:	4b 81       	ldd	r20, Y+3	; 0x03
    1d64:	5c 81       	ldd	r21, Y+4	; 0x04
    1d66:	bc 01       	movw	r22, r24
    1d68:	cd 01       	movw	r24, r26
    1d6a:	0e 94 07 03 	call	0x60e	; 0x60e <__mulsf3>
    1d6e:	dc 01       	movw	r26, r24
    1d70:	cb 01       	movw	r24, r22
    1d72:	9c 01       	movw	r18, r24
    1d74:	ad 01       	movw	r20, r26
    1d76:	c7 01       	movw	r24, r14
    1d78:	b6 01       	movw	r22, r12
    1d7a:	0e 94 bd 11 	call	0x237a	; 0x237a <__addsf3>
    1d7e:	dc 01       	movw	r26, r24
    1d80:	cb 01       	movw	r24, r22
    1d82:	20 e0       	ldi	r18, 0x00	; 0
    1d84:	30 e0       	ldi	r19, 0x00	; 0
    1d86:	40 e0       	ldi	r20, 0x00	; 0
    1d88:	59 e4       	ldi	r21, 0x49	; 73
    1d8a:	bc 01       	movw	r22, r24
    1d8c:	cd 01       	movw	r24, r26
    1d8e:	0e 94 ec 01 	call	0x3d8	; 0x3d8 <__divsf3>
    1d92:	dc 01       	movw	r26, r24
    1d94:	cb 01       	movw	r24, r22
    1d96:	89 83       	std	Y+1, r24	; 0x01
    1d98:	9a 83       	std	Y+2, r25	; 0x02
    1d9a:	ab 83       	std	Y+3, r26	; 0x03
    1d9c:	bc 83       	std	Y+4, r27	; 0x04
	var1 = (1.0 + var1 / 32768.0)*((double)dig_P1);
    1d9e:	20 e0       	ldi	r18, 0x00	; 0
    1da0:	30 e0       	ldi	r19, 0x00	; 0
    1da2:	40 e0       	ldi	r20, 0x00	; 0
    1da4:	57 e4       	ldi	r21, 0x47	; 71
    1da6:	69 81       	ldd	r22, Y+1	; 0x01
    1da8:	7a 81       	ldd	r23, Y+2	; 0x02
    1daa:	8b 81       	ldd	r24, Y+3	; 0x03
    1dac:	9c 81       	ldd	r25, Y+4	; 0x04
    1dae:	0e 94 ec 01 	call	0x3d8	; 0x3d8 <__divsf3>
    1db2:	dc 01       	movw	r26, r24
    1db4:	cb 01       	movw	r24, r22
    1db6:	20 e0       	ldi	r18, 0x00	; 0
    1db8:	30 e0       	ldi	r19, 0x00	; 0
    1dba:	40 e8       	ldi	r20, 0x80	; 128
    1dbc:	5f e3       	ldi	r21, 0x3F	; 63
    1dbe:	bc 01       	movw	r22, r24
    1dc0:	cd 01       	movw	r24, r26
    1dc2:	0e 94 bd 11 	call	0x237a	; 0x237a <__addsf3>
    1dc6:	dc 01       	movw	r26, r24
    1dc8:	cb 01       	movw	r24, r22
    1dca:	6c 01       	movw	r12, r24
    1dcc:	7d 01       	movw	r14, r26
    1dce:	80 91 1f 01 	lds	r24, 0x011F	; 0x80011f <dig_P1>
    1dd2:	90 91 20 01 	lds	r25, 0x0120	; 0x800120 <dig_P1+0x1>
    1dd6:	cc 01       	movw	r24, r24
    1dd8:	a0 e0       	ldi	r26, 0x00	; 0
    1dda:	b0 e0       	ldi	r27, 0x00	; 0
    1ddc:	bc 01       	movw	r22, r24
    1dde:	cd 01       	movw	r24, r26
    1de0:	0e 94 30 12 	call	0x2460	; 0x2460 <__floatunsisf>
    1de4:	dc 01       	movw	r26, r24
    1de6:	cb 01       	movw	r24, r22
    1de8:	9c 01       	movw	r18, r24
    1dea:	ad 01       	movw	r20, r26
    1dec:	c7 01       	movw	r24, r14
    1dee:	b6 01       	movw	r22, r12
    1df0:	0e 94 07 03 	call	0x60e	; 0x60e <__mulsf3>
    1df4:	dc 01       	movw	r26, r24
    1df6:	cb 01       	movw	r24, r22
    1df8:	89 83       	std	Y+1, r24	; 0x01
    1dfa:	9a 83       	std	Y+2, r25	; 0x02
    1dfc:	ab 83       	std	Y+3, r26	; 0x03
    1dfe:	bc 83       	std	Y+4, r27	; 0x04
	if (var1 == 0.0)
    1e00:	20 e0       	ldi	r18, 0x00	; 0
    1e02:	30 e0       	ldi	r19, 0x00	; 0
    1e04:	a9 01       	movw	r20, r18
    1e06:	69 81       	ldd	r22, Y+1	; 0x01
    1e08:	7a 81       	ldd	r23, Y+2	; 0x02
    1e0a:	8b 81       	ldd	r24, Y+3	; 0x03
    1e0c:	9c 81       	ldd	r25, Y+4	; 0x04
    1e0e:	0e 94 e7 01 	call	0x3ce	; 0x3ce <__cmpsf2>
    1e12:	88 23       	and	r24, r24
    1e14:	21 f4       	brne	.+8      	; 0x1e1e <BME280_compensate_P_double+0x2cc>
	{
		return 0; // avoid exception caused by division by zero
    1e16:	80 e0       	ldi	r24, 0x00	; 0
    1e18:	90 e0       	ldi	r25, 0x00	; 0
    1e1a:	dc 01       	movw	r26, r24
    1e1c:	da c0       	rjmp	.+436    	; 0x1fd2 <BME280_compensate_P_double+0x480>
	}
	p = 1048576.0 - (double)adc_P;
    1e1e:	6d 85       	ldd	r22, Y+13	; 0x0d
    1e20:	7e 85       	ldd	r23, Y+14	; 0x0e
    1e22:	8f 85       	ldd	r24, Y+15	; 0x0f
    1e24:	98 89       	ldd	r25, Y+16	; 0x10
    1e26:	0e 94 32 12 	call	0x2464	; 0x2464 <__floatsisf>
    1e2a:	dc 01       	movw	r26, r24
    1e2c:	cb 01       	movw	r24, r22
    1e2e:	9c 01       	movw	r18, r24
    1e30:	ad 01       	movw	r20, r26
    1e32:	60 e0       	ldi	r22, 0x00	; 0
    1e34:	70 e0       	ldi	r23, 0x00	; 0
    1e36:	80 e8       	ldi	r24, 0x80	; 128
    1e38:	99 e4       	ldi	r25, 0x49	; 73
    1e3a:	0e 94 bc 11 	call	0x2378	; 0x2378 <__subsf3>
    1e3e:	dc 01       	movw	r26, r24
    1e40:	cb 01       	movw	r24, r22
    1e42:	89 87       	std	Y+9, r24	; 0x09
    1e44:	9a 87       	std	Y+10, r25	; 0x0a
    1e46:	ab 87       	std	Y+11, r26	; 0x0b
    1e48:	bc 87       	std	Y+12, r27	; 0x0c
	p = (p - (var2 / 4096.0)) * 6250.0 / var1;
    1e4a:	20 e0       	ldi	r18, 0x00	; 0
    1e4c:	30 e0       	ldi	r19, 0x00	; 0
    1e4e:	40 e8       	ldi	r20, 0x80	; 128
    1e50:	55 e4       	ldi	r21, 0x45	; 69
    1e52:	6d 81       	ldd	r22, Y+5	; 0x05
    1e54:	7e 81       	ldd	r23, Y+6	; 0x06
    1e56:	8f 81       	ldd	r24, Y+7	; 0x07
    1e58:	98 85       	ldd	r25, Y+8	; 0x08
    1e5a:	0e 94 ec 01 	call	0x3d8	; 0x3d8 <__divsf3>
    1e5e:	dc 01       	movw	r26, r24
    1e60:	cb 01       	movw	r24, r22
    1e62:	9c 01       	movw	r18, r24
    1e64:	ad 01       	movw	r20, r26
    1e66:	69 85       	ldd	r22, Y+9	; 0x09
    1e68:	7a 85       	ldd	r23, Y+10	; 0x0a
    1e6a:	8b 85       	ldd	r24, Y+11	; 0x0b
    1e6c:	9c 85       	ldd	r25, Y+12	; 0x0c
    1e6e:	0e 94 bc 11 	call	0x2378	; 0x2378 <__subsf3>
    1e72:	dc 01       	movw	r26, r24
    1e74:	cb 01       	movw	r24, r22
    1e76:	20 e0       	ldi	r18, 0x00	; 0
    1e78:	30 e5       	ldi	r19, 0x50	; 80
    1e7a:	43 ec       	ldi	r20, 0xC3	; 195
    1e7c:	55 e4       	ldi	r21, 0x45	; 69
    1e7e:	bc 01       	movw	r22, r24
    1e80:	cd 01       	movw	r24, r26
    1e82:	0e 94 07 03 	call	0x60e	; 0x60e <__mulsf3>
    1e86:	dc 01       	movw	r26, r24
    1e88:	cb 01       	movw	r24, r22
    1e8a:	29 81       	ldd	r18, Y+1	; 0x01
    1e8c:	3a 81       	ldd	r19, Y+2	; 0x02
    1e8e:	4b 81       	ldd	r20, Y+3	; 0x03
    1e90:	5c 81       	ldd	r21, Y+4	; 0x04
    1e92:	bc 01       	movw	r22, r24
    1e94:	cd 01       	movw	r24, r26
    1e96:	0e 94 ec 01 	call	0x3d8	; 0x3d8 <__divsf3>
    1e9a:	dc 01       	movw	r26, r24
    1e9c:	cb 01       	movw	r24, r22
    1e9e:	89 87       	std	Y+9, r24	; 0x09
    1ea0:	9a 87       	std	Y+10, r25	; 0x0a
    1ea2:	ab 87       	std	Y+11, r26	; 0x0b
    1ea4:	bc 87       	std	Y+12, r27	; 0x0c
	var1 = ((double)dig_P9) * p * p / 2147483648.0;
    1ea6:	80 91 28 01 	lds	r24, 0x0128	; 0x800128 <dig_P9>
    1eaa:	90 91 29 01 	lds	r25, 0x0129	; 0x800129 <dig_P9+0x1>
    1eae:	09 2e       	mov	r0, r25
    1eb0:	00 0c       	add	r0, r0
    1eb2:	aa 0b       	sbc	r26, r26
    1eb4:	bb 0b       	sbc	r27, r27
    1eb6:	bc 01       	movw	r22, r24
    1eb8:	cd 01       	movw	r24, r26
    1eba:	0e 94 32 12 	call	0x2464	; 0x2464 <__floatsisf>
    1ebe:	dc 01       	movw	r26, r24
    1ec0:	cb 01       	movw	r24, r22
    1ec2:	29 85       	ldd	r18, Y+9	; 0x09
    1ec4:	3a 85       	ldd	r19, Y+10	; 0x0a
    1ec6:	4b 85       	ldd	r20, Y+11	; 0x0b
    1ec8:	5c 85       	ldd	r21, Y+12	; 0x0c
    1eca:	bc 01       	movw	r22, r24
    1ecc:	cd 01       	movw	r24, r26
    1ece:	0e 94 07 03 	call	0x60e	; 0x60e <__mulsf3>
    1ed2:	dc 01       	movw	r26, r24
    1ed4:	cb 01       	movw	r24, r22
    1ed6:	29 85       	ldd	r18, Y+9	; 0x09
    1ed8:	3a 85       	ldd	r19, Y+10	; 0x0a
    1eda:	4b 85       	ldd	r20, Y+11	; 0x0b
    1edc:	5c 85       	ldd	r21, Y+12	; 0x0c
    1ede:	bc 01       	movw	r22, r24
    1ee0:	cd 01       	movw	r24, r26
    1ee2:	0e 94 07 03 	call	0x60e	; 0x60e <__mulsf3>
    1ee6:	dc 01       	movw	r26, r24
    1ee8:	cb 01       	movw	r24, r22
    1eea:	20 e0       	ldi	r18, 0x00	; 0
    1eec:	30 e0       	ldi	r19, 0x00	; 0
    1eee:	40 e0       	ldi	r20, 0x00	; 0
    1ef0:	5f e4       	ldi	r21, 0x4F	; 79
    1ef2:	bc 01       	movw	r22, r24
    1ef4:	cd 01       	movw	r24, r26
    1ef6:	0e 94 ec 01 	call	0x3d8	; 0x3d8 <__divsf3>
    1efa:	dc 01       	movw	r26, r24
    1efc:	cb 01       	movw	r24, r22
    1efe:	89 83       	std	Y+1, r24	; 0x01
    1f00:	9a 83       	std	Y+2, r25	; 0x02
    1f02:	ab 83       	std	Y+3, r26	; 0x03
    1f04:	bc 83       	std	Y+4, r27	; 0x04
	var2 = p * ((double)dig_P8) / 32768.0;
    1f06:	80 91 23 01 	lds	r24, 0x0123	; 0x800123 <dig_P8>
    1f0a:	90 91 24 01 	lds	r25, 0x0124	; 0x800124 <dig_P8+0x1>
    1f0e:	09 2e       	mov	r0, r25
    1f10:	00 0c       	add	r0, r0
    1f12:	aa 0b       	sbc	r26, r26
    1f14:	bb 0b       	sbc	r27, r27
    1f16:	bc 01       	movw	r22, r24
    1f18:	cd 01       	movw	r24, r26
    1f1a:	0e 94 32 12 	call	0x2464	; 0x2464 <__floatsisf>
    1f1e:	dc 01       	movw	r26, r24
    1f20:	cb 01       	movw	r24, r22
    1f22:	29 85       	ldd	r18, Y+9	; 0x09
    1f24:	3a 85       	ldd	r19, Y+10	; 0x0a
    1f26:	4b 85       	ldd	r20, Y+11	; 0x0b
    1f28:	5c 85       	ldd	r21, Y+12	; 0x0c
    1f2a:	bc 01       	movw	r22, r24
    1f2c:	cd 01       	movw	r24, r26
    1f2e:	0e 94 07 03 	call	0x60e	; 0x60e <__mulsf3>
    1f32:	dc 01       	movw	r26, r24
    1f34:	cb 01       	movw	r24, r22
    1f36:	20 e0       	ldi	r18, 0x00	; 0
    1f38:	30 e0       	ldi	r19, 0x00	; 0
    1f3a:	40 e0       	ldi	r20, 0x00	; 0
    1f3c:	57 e4       	ldi	r21, 0x47	; 71
    1f3e:	bc 01       	movw	r22, r24
    1f40:	cd 01       	movw	r24, r26
    1f42:	0e 94 ec 01 	call	0x3d8	; 0x3d8 <__divsf3>
    1f46:	dc 01       	movw	r26, r24
    1f48:	cb 01       	movw	r24, r22
    1f4a:	8d 83       	std	Y+5, r24	; 0x05
    1f4c:	9e 83       	std	Y+6, r25	; 0x06
    1f4e:	af 83       	std	Y+7, r26	; 0x07
    1f50:	b8 87       	std	Y+8, r27	; 0x08
	p = p + (var1 + var2 + ((double)dig_P7)) / 16.0;
    1f52:	2d 81       	ldd	r18, Y+5	; 0x05
    1f54:	3e 81       	ldd	r19, Y+6	; 0x06
    1f56:	4f 81       	ldd	r20, Y+7	; 0x07
    1f58:	58 85       	ldd	r21, Y+8	; 0x08
    1f5a:	69 81       	ldd	r22, Y+1	; 0x01
    1f5c:	7a 81       	ldd	r23, Y+2	; 0x02
    1f5e:	8b 81       	ldd	r24, Y+3	; 0x03
    1f60:	9c 81       	ldd	r25, Y+4	; 0x04
    1f62:	0e 94 bd 11 	call	0x237a	; 0x237a <__addsf3>
    1f66:	dc 01       	movw	r26, r24
    1f68:	cb 01       	movw	r24, r22
    1f6a:	6c 01       	movw	r12, r24
    1f6c:	7d 01       	movw	r14, r26
    1f6e:	80 91 0f 01 	lds	r24, 0x010F	; 0x80010f <dig_P7>
    1f72:	90 91 10 01 	lds	r25, 0x0110	; 0x800110 <dig_P7+0x1>
    1f76:	09 2e       	mov	r0, r25
    1f78:	00 0c       	add	r0, r0
    1f7a:	aa 0b       	sbc	r26, r26
    1f7c:	bb 0b       	sbc	r27, r27
    1f7e:	bc 01       	movw	r22, r24
    1f80:	cd 01       	movw	r24, r26
    1f82:	0e 94 32 12 	call	0x2464	; 0x2464 <__floatsisf>
    1f86:	dc 01       	movw	r26, r24
    1f88:	cb 01       	movw	r24, r22
    1f8a:	9c 01       	movw	r18, r24
    1f8c:	ad 01       	movw	r20, r26
    1f8e:	c7 01       	movw	r24, r14
    1f90:	b6 01       	movw	r22, r12
    1f92:	0e 94 bd 11 	call	0x237a	; 0x237a <__addsf3>
    1f96:	dc 01       	movw	r26, r24
    1f98:	cb 01       	movw	r24, r22
    1f9a:	20 e0       	ldi	r18, 0x00	; 0
    1f9c:	30 e0       	ldi	r19, 0x00	; 0
    1f9e:	40 e8       	ldi	r20, 0x80	; 128
    1fa0:	51 e4       	ldi	r21, 0x41	; 65
    1fa2:	bc 01       	movw	r22, r24
    1fa4:	cd 01       	movw	r24, r26
    1fa6:	0e 94 ec 01 	call	0x3d8	; 0x3d8 <__divsf3>
    1faa:	dc 01       	movw	r26, r24
    1fac:	cb 01       	movw	r24, r22
    1fae:	9c 01       	movw	r18, r24
    1fb0:	ad 01       	movw	r20, r26
    1fb2:	69 85       	ldd	r22, Y+9	; 0x09
    1fb4:	7a 85       	ldd	r23, Y+10	; 0x0a
    1fb6:	8b 85       	ldd	r24, Y+11	; 0x0b
    1fb8:	9c 85       	ldd	r25, Y+12	; 0x0c
    1fba:	0e 94 bd 11 	call	0x237a	; 0x237a <__addsf3>
    1fbe:	dc 01       	movw	r26, r24
    1fc0:	cb 01       	movw	r24, r22
    1fc2:	89 87       	std	Y+9, r24	; 0x09
    1fc4:	9a 87       	std	Y+10, r25	; 0x0a
    1fc6:	ab 87       	std	Y+11, r26	; 0x0b
    1fc8:	bc 87       	std	Y+12, r27	; 0x0c
	return p;
    1fca:	89 85       	ldd	r24, Y+9	; 0x09
    1fcc:	9a 85       	ldd	r25, Y+10	; 0x0a
    1fce:	ab 85       	ldd	r26, Y+11	; 0x0b
    1fd0:	bc 85       	ldd	r27, Y+12	; 0x0c
}
    1fd2:	bc 01       	movw	r22, r24
    1fd4:	cd 01       	movw	r24, r26
    1fd6:	60 96       	adiw	r28, 0x10	; 16
    1fd8:	0f b6       	in	r0, 0x3f	; 63
    1fda:	f8 94       	cli
    1fdc:	de bf       	out	0x3e, r29	; 62
    1fde:	0f be       	out	0x3f, r0	; 63
    1fe0:	cd bf       	out	0x3d, r28	; 61
    1fe2:	df 91       	pop	r29
    1fe4:	cf 91       	pop	r28
    1fe6:	ff 90       	pop	r15
    1fe8:	ef 90       	pop	r14
    1fea:	df 90       	pop	r13
    1fec:	cf 90       	pop	r12
    1fee:	08 95       	ret

00001ff0 <BME280_compensate_H_double>:

double BME280_compensate_H_double(int32_t adc_H)
{
    1ff0:	4f 92       	push	r4
    1ff2:	5f 92       	push	r5
    1ff4:	6f 92       	push	r6
    1ff6:	7f 92       	push	r7
    1ff8:	8f 92       	push	r8
    1ffa:	9f 92       	push	r9
    1ffc:	af 92       	push	r10
    1ffe:	bf 92       	push	r11
    2000:	cf 92       	push	r12
    2002:	df 92       	push	r13
    2004:	ef 92       	push	r14
    2006:	ff 92       	push	r15
    2008:	cf 93       	push	r28
    200a:	df 93       	push	r29
    200c:	cd b7       	in	r28, 0x3d	; 61
    200e:	de b7       	in	r29, 0x3e	; 62
    2010:	28 97       	sbiw	r28, 0x08	; 8
    2012:	0f b6       	in	r0, 0x3f	; 63
    2014:	f8 94       	cli
    2016:	de bf       	out	0x3e, r29	; 62
    2018:	0f be       	out	0x3f, r0	; 63
    201a:	cd bf       	out	0x3d, r28	; 61
    201c:	6d 83       	std	Y+5, r22	; 0x05
    201e:	7e 83       	std	Y+6, r23	; 0x06
    2020:	8f 83       	std	Y+7, r24	; 0x07
    2022:	98 87       	std	Y+8, r25	; 0x08
	double var_H;
	var_H = (((double)t_fine) - 76800.0);
    2024:	80 91 30 01 	lds	r24, 0x0130	; 0x800130 <t_fine>
    2028:	90 91 31 01 	lds	r25, 0x0131	; 0x800131 <t_fine+0x1>
    202c:	a0 91 32 01 	lds	r26, 0x0132	; 0x800132 <t_fine+0x2>
    2030:	b0 91 33 01 	lds	r27, 0x0133	; 0x800133 <t_fine+0x3>
    2034:	bc 01       	movw	r22, r24
    2036:	cd 01       	movw	r24, r26
    2038:	0e 94 32 12 	call	0x2464	; 0x2464 <__floatsisf>
    203c:	dc 01       	movw	r26, r24
    203e:	cb 01       	movw	r24, r22
    2040:	20 e0       	ldi	r18, 0x00	; 0
    2042:	30 e0       	ldi	r19, 0x00	; 0
    2044:	46 e9       	ldi	r20, 0x96	; 150
    2046:	57 e4       	ldi	r21, 0x47	; 71
    2048:	bc 01       	movw	r22, r24
    204a:	cd 01       	movw	r24, r26
    204c:	0e 94 bc 11 	call	0x2378	; 0x2378 <__subsf3>
    2050:	dc 01       	movw	r26, r24
    2052:	cb 01       	movw	r24, r22
    2054:	89 83       	std	Y+1, r24	; 0x01
    2056:	9a 83       	std	Y+2, r25	; 0x02
    2058:	ab 83       	std	Y+3, r26	; 0x03
    205a:	bc 83       	std	Y+4, r27	; 0x04
	var_H = (adc_H - (((double)dig_H4) * 64.0 + ((double)dig_H5) / 16384.0 * var_H)) * (((double)dig_H2) / 65536.0 * (1.0 + ((double)dig_H6) / 67108864.0 * var_H * (1.0 + ((double)dig_H3) / 67108864.0 * var_H)));
    205c:	6d 81       	ldd	r22, Y+5	; 0x05
    205e:	7e 81       	ldd	r23, Y+6	; 0x06
    2060:	8f 81       	ldd	r24, Y+7	; 0x07
    2062:	98 85       	ldd	r25, Y+8	; 0x08
    2064:	0e 94 32 12 	call	0x2464	; 0x2464 <__floatsisf>
    2068:	6b 01       	movw	r12, r22
    206a:	7c 01       	movw	r14, r24
    206c:	80 91 13 01 	lds	r24, 0x0113	; 0x800113 <dig_H4>
    2070:	90 91 14 01 	lds	r25, 0x0114	; 0x800114 <dig_H4+0x1>
    2074:	09 2e       	mov	r0, r25
    2076:	00 0c       	add	r0, r0
    2078:	aa 0b       	sbc	r26, r26
    207a:	bb 0b       	sbc	r27, r27
    207c:	bc 01       	movw	r22, r24
    207e:	cd 01       	movw	r24, r26
    2080:	0e 94 32 12 	call	0x2464	; 0x2464 <__floatsisf>
    2084:	dc 01       	movw	r26, r24
    2086:	cb 01       	movw	r24, r22
    2088:	20 e0       	ldi	r18, 0x00	; 0
    208a:	30 e0       	ldi	r19, 0x00	; 0
    208c:	40 e8       	ldi	r20, 0x80	; 128
    208e:	52 e4       	ldi	r21, 0x42	; 66
    2090:	bc 01       	movw	r22, r24
    2092:	cd 01       	movw	r24, r26
    2094:	0e 94 07 03 	call	0x60e	; 0x60e <__mulsf3>
    2098:	dc 01       	movw	r26, r24
    209a:	cb 01       	movw	r24, r22
    209c:	4c 01       	movw	r8, r24
    209e:	5d 01       	movw	r10, r26
    20a0:	80 91 25 01 	lds	r24, 0x0125	; 0x800125 <dig_H5>
    20a4:	90 91 26 01 	lds	r25, 0x0126	; 0x800126 <dig_H5+0x1>
    20a8:	09 2e       	mov	r0, r25
    20aa:	00 0c       	add	r0, r0
    20ac:	aa 0b       	sbc	r26, r26
    20ae:	bb 0b       	sbc	r27, r27
    20b0:	bc 01       	movw	r22, r24
    20b2:	cd 01       	movw	r24, r26
    20b4:	0e 94 32 12 	call	0x2464	; 0x2464 <__floatsisf>
    20b8:	dc 01       	movw	r26, r24
    20ba:	cb 01       	movw	r24, r22
    20bc:	20 e0       	ldi	r18, 0x00	; 0
    20be:	30 e0       	ldi	r19, 0x00	; 0
    20c0:	40 e8       	ldi	r20, 0x80	; 128
    20c2:	56 e4       	ldi	r21, 0x46	; 70
    20c4:	bc 01       	movw	r22, r24
    20c6:	cd 01       	movw	r24, r26
    20c8:	0e 94 ec 01 	call	0x3d8	; 0x3d8 <__divsf3>
    20cc:	dc 01       	movw	r26, r24
    20ce:	cb 01       	movw	r24, r22
    20d0:	29 81       	ldd	r18, Y+1	; 0x01
    20d2:	3a 81       	ldd	r19, Y+2	; 0x02
    20d4:	4b 81       	ldd	r20, Y+3	; 0x03
    20d6:	5c 81       	ldd	r21, Y+4	; 0x04
    20d8:	bc 01       	movw	r22, r24
    20da:	cd 01       	movw	r24, r26
    20dc:	0e 94 07 03 	call	0x60e	; 0x60e <__mulsf3>
    20e0:	dc 01       	movw	r26, r24
    20e2:	cb 01       	movw	r24, r22
    20e4:	9c 01       	movw	r18, r24
    20e6:	ad 01       	movw	r20, r26
    20e8:	c5 01       	movw	r24, r10
    20ea:	b4 01       	movw	r22, r8
    20ec:	0e 94 bd 11 	call	0x237a	; 0x237a <__addsf3>
    20f0:	dc 01       	movw	r26, r24
    20f2:	cb 01       	movw	r24, r22
    20f4:	9c 01       	movw	r18, r24
    20f6:	ad 01       	movw	r20, r26
    20f8:	c7 01       	movw	r24, r14
    20fa:	b6 01       	movw	r22, r12
    20fc:	0e 94 bc 11 	call	0x2378	; 0x2378 <__subsf3>
    2100:	dc 01       	movw	r26, r24
    2102:	cb 01       	movw	r24, r22
    2104:	6c 01       	movw	r12, r24
    2106:	7d 01       	movw	r14, r26
    2108:	80 91 2e 01 	lds	r24, 0x012E	; 0x80012e <dig_H2>
    210c:	90 91 2f 01 	lds	r25, 0x012F	; 0x80012f <dig_H2+0x1>
    2110:	09 2e       	mov	r0, r25
    2112:	00 0c       	add	r0, r0
    2114:	aa 0b       	sbc	r26, r26
    2116:	bb 0b       	sbc	r27, r27
    2118:	bc 01       	movw	r22, r24
    211a:	cd 01       	movw	r24, r26
    211c:	0e 94 32 12 	call	0x2464	; 0x2464 <__floatsisf>
    2120:	dc 01       	movw	r26, r24
    2122:	cb 01       	movw	r24, r22
    2124:	20 e0       	ldi	r18, 0x00	; 0
    2126:	30 e0       	ldi	r19, 0x00	; 0
    2128:	40 e8       	ldi	r20, 0x80	; 128
    212a:	57 e4       	ldi	r21, 0x47	; 71
    212c:	bc 01       	movw	r22, r24
    212e:	cd 01       	movw	r24, r26
    2130:	0e 94 ec 01 	call	0x3d8	; 0x3d8 <__divsf3>
    2134:	dc 01       	movw	r26, r24
    2136:	cb 01       	movw	r24, r22
    2138:	4c 01       	movw	r8, r24
    213a:	5d 01       	movw	r10, r26
    213c:	80 91 1c 01 	lds	r24, 0x011C	; 0x80011c <dig_H6>
    2140:	88 2f       	mov	r24, r24
    2142:	90 e0       	ldi	r25, 0x00	; 0
    2144:	a0 e0       	ldi	r26, 0x00	; 0
    2146:	b0 e0       	ldi	r27, 0x00	; 0
    2148:	bc 01       	movw	r22, r24
    214a:	cd 01       	movw	r24, r26
    214c:	0e 94 30 12 	call	0x2460	; 0x2460 <__floatunsisf>
    2150:	dc 01       	movw	r26, r24
    2152:	cb 01       	movw	r24, r22
    2154:	20 e0       	ldi	r18, 0x00	; 0
    2156:	30 e0       	ldi	r19, 0x00	; 0
    2158:	40 e8       	ldi	r20, 0x80	; 128
    215a:	5c e4       	ldi	r21, 0x4C	; 76
    215c:	bc 01       	movw	r22, r24
    215e:	cd 01       	movw	r24, r26
    2160:	0e 94 ec 01 	call	0x3d8	; 0x3d8 <__divsf3>
    2164:	dc 01       	movw	r26, r24
    2166:	cb 01       	movw	r24, r22
    2168:	29 81       	ldd	r18, Y+1	; 0x01
    216a:	3a 81       	ldd	r19, Y+2	; 0x02
    216c:	4b 81       	ldd	r20, Y+3	; 0x03
    216e:	5c 81       	ldd	r21, Y+4	; 0x04
    2170:	bc 01       	movw	r22, r24
    2172:	cd 01       	movw	r24, r26
    2174:	0e 94 07 03 	call	0x60e	; 0x60e <__mulsf3>
    2178:	dc 01       	movw	r26, r24
    217a:	cb 01       	movw	r24, r22
    217c:	2c 01       	movw	r4, r24
    217e:	3d 01       	movw	r6, r26
    2180:	80 91 27 01 	lds	r24, 0x0127	; 0x800127 <dig_H3>
    2184:	88 2f       	mov	r24, r24
    2186:	90 e0       	ldi	r25, 0x00	; 0
    2188:	a0 e0       	ldi	r26, 0x00	; 0
    218a:	b0 e0       	ldi	r27, 0x00	; 0
    218c:	bc 01       	movw	r22, r24
    218e:	cd 01       	movw	r24, r26
    2190:	0e 94 30 12 	call	0x2460	; 0x2460 <__floatunsisf>
    2194:	dc 01       	movw	r26, r24
    2196:	cb 01       	movw	r24, r22
    2198:	20 e0       	ldi	r18, 0x00	; 0
    219a:	30 e0       	ldi	r19, 0x00	; 0
    219c:	40 e8       	ldi	r20, 0x80	; 128
    219e:	5c e4       	ldi	r21, 0x4C	; 76
    21a0:	bc 01       	movw	r22, r24
    21a2:	cd 01       	movw	r24, r26
    21a4:	0e 94 ec 01 	call	0x3d8	; 0x3d8 <__divsf3>
    21a8:	dc 01       	movw	r26, r24
    21aa:	cb 01       	movw	r24, r22
    21ac:	29 81       	ldd	r18, Y+1	; 0x01
    21ae:	3a 81       	ldd	r19, Y+2	; 0x02
    21b0:	4b 81       	ldd	r20, Y+3	; 0x03
    21b2:	5c 81       	ldd	r21, Y+4	; 0x04
    21b4:	bc 01       	movw	r22, r24
    21b6:	cd 01       	movw	r24, r26
    21b8:	0e 94 07 03 	call	0x60e	; 0x60e <__mulsf3>
    21bc:	dc 01       	movw	r26, r24
    21be:	cb 01       	movw	r24, r22
    21c0:	20 e0       	ldi	r18, 0x00	; 0
    21c2:	30 e0       	ldi	r19, 0x00	; 0
    21c4:	40 e8       	ldi	r20, 0x80	; 128
    21c6:	5f e3       	ldi	r21, 0x3F	; 63
    21c8:	bc 01       	movw	r22, r24
    21ca:	cd 01       	movw	r24, r26
    21cc:	0e 94 bd 11 	call	0x237a	; 0x237a <__addsf3>
    21d0:	dc 01       	movw	r26, r24
    21d2:	cb 01       	movw	r24, r22
    21d4:	9c 01       	movw	r18, r24
    21d6:	ad 01       	movw	r20, r26
    21d8:	c3 01       	movw	r24, r6
    21da:	b2 01       	movw	r22, r4
    21dc:	0e 94 07 03 	call	0x60e	; 0x60e <__mulsf3>
    21e0:	dc 01       	movw	r26, r24
    21e2:	cb 01       	movw	r24, r22
    21e4:	20 e0       	ldi	r18, 0x00	; 0
    21e6:	30 e0       	ldi	r19, 0x00	; 0
    21e8:	40 e8       	ldi	r20, 0x80	; 128
    21ea:	5f e3       	ldi	r21, 0x3F	; 63
    21ec:	bc 01       	movw	r22, r24
    21ee:	cd 01       	movw	r24, r26
    21f0:	0e 94 bd 11 	call	0x237a	; 0x237a <__addsf3>
    21f4:	dc 01       	movw	r26, r24
    21f6:	cb 01       	movw	r24, r22
    21f8:	9c 01       	movw	r18, r24
    21fa:	ad 01       	movw	r20, r26
    21fc:	c5 01       	movw	r24, r10
    21fe:	b4 01       	movw	r22, r8
    2200:	0e 94 07 03 	call	0x60e	; 0x60e <__mulsf3>
    2204:	dc 01       	movw	r26, r24
    2206:	cb 01       	movw	r24, r22
    2208:	9c 01       	movw	r18, r24
    220a:	ad 01       	movw	r20, r26
    220c:	c7 01       	movw	r24, r14
    220e:	b6 01       	movw	r22, r12
    2210:	0e 94 07 03 	call	0x60e	; 0x60e <__mulsf3>
    2214:	dc 01       	movw	r26, r24
    2216:	cb 01       	movw	r24, r22
    2218:	89 83       	std	Y+1, r24	; 0x01
    221a:	9a 83       	std	Y+2, r25	; 0x02
    221c:	ab 83       	std	Y+3, r26	; 0x03
    221e:	bc 83       	std	Y+4, r27	; 0x04
	var_H = var_H * (1.0 - ((double)dig_H1) * var_H / 524288.0);
    2220:	80 91 17 01 	lds	r24, 0x0117	; 0x800117 <dig_H1>
    2224:	88 2f       	mov	r24, r24
    2226:	90 e0       	ldi	r25, 0x00	; 0
    2228:	a0 e0       	ldi	r26, 0x00	; 0
    222a:	b0 e0       	ldi	r27, 0x00	; 0
    222c:	bc 01       	movw	r22, r24
    222e:	cd 01       	movw	r24, r26
    2230:	0e 94 30 12 	call	0x2460	; 0x2460 <__floatunsisf>
    2234:	dc 01       	movw	r26, r24
    2236:	cb 01       	movw	r24, r22
    2238:	29 81       	ldd	r18, Y+1	; 0x01
    223a:	3a 81       	ldd	r19, Y+2	; 0x02
    223c:	4b 81       	ldd	r20, Y+3	; 0x03
    223e:	5c 81       	ldd	r21, Y+4	; 0x04
    2240:	bc 01       	movw	r22, r24
    2242:	cd 01       	movw	r24, r26
    2244:	0e 94 07 03 	call	0x60e	; 0x60e <__mulsf3>
    2248:	dc 01       	movw	r26, r24
    224a:	cb 01       	movw	r24, r22
    224c:	20 e0       	ldi	r18, 0x00	; 0
    224e:	30 e0       	ldi	r19, 0x00	; 0
    2250:	40 e0       	ldi	r20, 0x00	; 0
    2252:	59 e4       	ldi	r21, 0x49	; 73
    2254:	bc 01       	movw	r22, r24
    2256:	cd 01       	movw	r24, r26
    2258:	0e 94 ec 01 	call	0x3d8	; 0x3d8 <__divsf3>
    225c:	dc 01       	movw	r26, r24
    225e:	cb 01       	movw	r24, r22
    2260:	9c 01       	movw	r18, r24
    2262:	ad 01       	movw	r20, r26
    2264:	60 e0       	ldi	r22, 0x00	; 0
    2266:	70 e0       	ldi	r23, 0x00	; 0
    2268:	80 e8       	ldi	r24, 0x80	; 128
    226a:	9f e3       	ldi	r25, 0x3F	; 63
    226c:	0e 94 bc 11 	call	0x2378	; 0x2378 <__subsf3>
    2270:	dc 01       	movw	r26, r24
    2272:	cb 01       	movw	r24, r22
    2274:	9c 01       	movw	r18, r24
    2276:	ad 01       	movw	r20, r26
    2278:	69 81       	ldd	r22, Y+1	; 0x01
    227a:	7a 81       	ldd	r23, Y+2	; 0x02
    227c:	8b 81       	ldd	r24, Y+3	; 0x03
    227e:	9c 81       	ldd	r25, Y+4	; 0x04
    2280:	0e 94 07 03 	call	0x60e	; 0x60e <__mulsf3>
    2284:	dc 01       	movw	r26, r24
    2286:	cb 01       	movw	r24, r22
    2288:	89 83       	std	Y+1, r24	; 0x01
    228a:	9a 83       	std	Y+2, r25	; 0x02
    228c:	ab 83       	std	Y+3, r26	; 0x03
    228e:	bc 83       	std	Y+4, r27	; 0x04
	if (var_H > 100.0)
    2290:	20 e0       	ldi	r18, 0x00	; 0
    2292:	30 e0       	ldi	r19, 0x00	; 0
    2294:	48 ec       	ldi	r20, 0xC8	; 200
    2296:	52 e4       	ldi	r21, 0x42	; 66
    2298:	69 81       	ldd	r22, Y+1	; 0x01
    229a:	7a 81       	ldd	r23, Y+2	; 0x02
    229c:	8b 81       	ldd	r24, Y+3	; 0x03
    229e:	9c 81       	ldd	r25, Y+4	; 0x04
    22a0:	0e 94 02 03 	call	0x604	; 0x604 <__gesf2>
    22a4:	18 16       	cp	r1, r24
    22a6:	4c f4       	brge	.+18     	; 0x22ba <BME280_compensate_H_double+0x2ca>
	var_H = 100.0;
    22a8:	80 e0       	ldi	r24, 0x00	; 0
    22aa:	90 e0       	ldi	r25, 0x00	; 0
    22ac:	a8 ec       	ldi	r26, 0xC8	; 200
    22ae:	b2 e4       	ldi	r27, 0x42	; 66
    22b0:	89 83       	std	Y+1, r24	; 0x01
    22b2:	9a 83       	std	Y+2, r25	; 0x02
    22b4:	ab 83       	std	Y+3, r26	; 0x03
    22b6:	bc 83       	std	Y+4, r27	; 0x04
    22b8:	0f c0       	rjmp	.+30     	; 0x22d8 <BME280_compensate_H_double+0x2e8>
	else if (var_H < 0.0)
    22ba:	20 e0       	ldi	r18, 0x00	; 0
    22bc:	30 e0       	ldi	r19, 0x00	; 0
    22be:	a9 01       	movw	r20, r18
    22c0:	69 81       	ldd	r22, Y+1	; 0x01
    22c2:	7a 81       	ldd	r23, Y+2	; 0x02
    22c4:	8b 81       	ldd	r24, Y+3	; 0x03
    22c6:	9c 81       	ldd	r25, Y+4	; 0x04
    22c8:	0e 94 e7 01 	call	0x3ce	; 0x3ce <__cmpsf2>
    22cc:	88 23       	and	r24, r24
    22ce:	24 f4       	brge	.+8      	; 0x22d8 <BME280_compensate_H_double+0x2e8>
	var_H = 0.0;
    22d0:	19 82       	std	Y+1, r1	; 0x01
    22d2:	1a 82       	std	Y+2, r1	; 0x02
    22d4:	1b 82       	std	Y+3, r1	; 0x03
    22d6:	1c 82       	std	Y+4, r1	; 0x04
	return var_H;
    22d8:	89 81       	ldd	r24, Y+1	; 0x01
    22da:	9a 81       	ldd	r25, Y+2	; 0x02
    22dc:	ab 81       	ldd	r26, Y+3	; 0x03
    22de:	bc 81       	ldd	r27, Y+4	; 0x04
}
    22e0:	bc 01       	movw	r22, r24
    22e2:	cd 01       	movw	r24, r26
    22e4:	28 96       	adiw	r28, 0x08	; 8
    22e6:	0f b6       	in	r0, 0x3f	; 63
    22e8:	f8 94       	cli
    22ea:	de bf       	out	0x3e, r29	; 62
    22ec:	0f be       	out	0x3f, r0	; 63
    22ee:	cd bf       	out	0x3d, r28	; 61
    22f0:	df 91       	pop	r29
    22f2:	cf 91       	pop	r28
    22f4:	ff 90       	pop	r15
    22f6:	ef 90       	pop	r14
    22f8:	df 90       	pop	r13
    22fa:	cf 90       	pop	r12
    22fc:	bf 90       	pop	r11
    22fe:	af 90       	pop	r10
    2300:	9f 90       	pop	r9
    2302:	8f 90       	pop	r8
    2304:	7f 90       	pop	r7
    2306:	6f 90       	pop	r6
    2308:	5f 90       	pop	r5
    230a:	4f 90       	pop	r4
    230c:	08 95       	ret

0000230e <writeToRegister>:

// util functions
boolean writeToRegister(unsigned char registerAddress, unsigned char data)
{
    230e:	cf 93       	push	r28
    2310:	df 93       	push	r29
    2312:	00 d0       	rcall	.+0      	; 0x2314 <writeToRegister+0x6>
    2314:	1f 92       	push	r1
    2316:	cd b7       	in	r28, 0x3d	; 61
    2318:	de b7       	in	r29, 0x3e	; 62
    231a:	8a 83       	std	Y+2, r24	; 0x02
    231c:	6b 83       	std	Y+3, r22	; 0x03
	boolean state = FALSE;
    231e:	19 82       	std	Y+1, r1	; 0x01
	
	sendStartCondition();
    2320:	0e 94 4d 06 	call	0xc9a	; 0xc9a <sendStartCondition>
	
	if(sendByte(slaveAddressW) && sendByte(registerAddress) && sendByte(data))
    2324:	80 91 0e 01 	lds	r24, 0x010E	; 0x80010e <slaveAddressW>
    2328:	0e 94 ad 06 	call	0xd5a	; 0xd5a <sendByte>
    232c:	88 23       	and	r24, r24
    232e:	61 f0       	breq	.+24     	; 0x2348 <writeToRegister+0x3a>
    2330:	8a 81       	ldd	r24, Y+2	; 0x02
    2332:	0e 94 ad 06 	call	0xd5a	; 0xd5a <sendByte>
    2336:	88 23       	and	r24, r24
    2338:	39 f0       	breq	.+14     	; 0x2348 <writeToRegister+0x3a>
    233a:	8b 81       	ldd	r24, Y+3	; 0x03
    233c:	0e 94 ad 06 	call	0xd5a	; 0xd5a <sendByte>
    2340:	88 23       	and	r24, r24
    2342:	11 f0       	breq	.+4      	; 0x2348 <writeToRegister+0x3a>
		state = TRUE;
    2344:	81 e0       	ldi	r24, 0x01	; 1
    2346:	89 83       	std	Y+1, r24	; 0x01
	
	sendStopCondition();
    2348:	0e 94 7d 06 	call	0xcfa	; 0xcfa <sendStopCondition>
	
	return state;
    234c:	89 81       	ldd	r24, Y+1	; 0x01
}
    234e:	0f 90       	pop	r0
    2350:	0f 90       	pop	r0
    2352:	0f 90       	pop	r0
    2354:	df 91       	pop	r29
    2356:	cf 91       	pop	r28
    2358:	08 95       	ret

0000235a <readFromRegister>:

unsigned char readFromRegister(unsigned char registerAddress)
{
    235a:	cf 93       	push	r28
    235c:	df 93       	push	r29
    235e:	1f 92       	push	r1
    2360:	cd b7       	in	r28, 0x3d	; 61
    2362:	de b7       	in	r29, 0x3e	; 62
    2364:	89 83       	std	Y+1, r24	; 0x01
	return readRegister(slaveAddressR, registerAddress);
    2366:	80 91 0d 01 	lds	r24, 0x010D	; 0x80010d <slaveAddressR>
    236a:	69 81       	ldd	r22, Y+1	; 0x01
    236c:	0e 94 29 07 	call	0xe52	; 0xe52 <readRegister>
    2370:	0f 90       	pop	r0
    2372:	df 91       	pop	r29
    2374:	cf 91       	pop	r28
    2376:	08 95       	ret

00002378 <__subsf3>:
    2378:	50 58       	subi	r21, 0x80	; 128

0000237a <__addsf3>:
    237a:	bb 27       	eor	r27, r27
    237c:	aa 27       	eor	r26, r26
    237e:	0e 94 d4 11 	call	0x23a8	; 0x23a8 <__addsf3x>
    2382:	0c 94 c8 02 	jmp	0x590	; 0x590 <__fp_round>
    2386:	0e 94 ba 02 	call	0x574	; 0x574 <__fp_pscA>
    238a:	38 f0       	brcs	.+14     	; 0x239a <__addsf3+0x20>
    238c:	0e 94 c1 02 	call	0x582	; 0x582 <__fp_pscB>
    2390:	20 f0       	brcs	.+8      	; 0x239a <__addsf3+0x20>
    2392:	39 f4       	brne	.+14     	; 0x23a2 <__addsf3+0x28>
    2394:	9f 3f       	cpi	r25, 0xFF	; 255
    2396:	19 f4       	brne	.+6      	; 0x239e <__addsf3+0x24>
    2398:	26 f4       	brtc	.+8      	; 0x23a2 <__addsf3+0x28>
    239a:	0c 94 b7 02 	jmp	0x56e	; 0x56e <__fp_nan>
    239e:	0e f4       	brtc	.+2      	; 0x23a2 <__addsf3+0x28>
    23a0:	e0 95       	com	r30
    23a2:	e7 fb       	bst	r30, 7
    23a4:	0c 94 b1 02 	jmp	0x562	; 0x562 <__fp_inf>

000023a8 <__addsf3x>:
    23a8:	e9 2f       	mov	r30, r25
    23aa:	0e 94 d9 02 	call	0x5b2	; 0x5b2 <__fp_split3>
    23ae:	58 f3       	brcs	.-42     	; 0x2386 <__addsf3+0xc>
    23b0:	ba 17       	cp	r27, r26
    23b2:	62 07       	cpc	r22, r18
    23b4:	73 07       	cpc	r23, r19
    23b6:	84 07       	cpc	r24, r20
    23b8:	95 07       	cpc	r25, r21
    23ba:	20 f0       	brcs	.+8      	; 0x23c4 <__addsf3x+0x1c>
    23bc:	79 f4       	brne	.+30     	; 0x23dc <__addsf3x+0x34>
    23be:	a6 f5       	brtc	.+104    	; 0x2428 <__addsf3x+0x80>
    23c0:	0c 94 fb 02 	jmp	0x5f6	; 0x5f6 <__fp_zero>
    23c4:	0e f4       	brtc	.+2      	; 0x23c8 <__addsf3x+0x20>
    23c6:	e0 95       	com	r30
    23c8:	0b 2e       	mov	r0, r27
    23ca:	ba 2f       	mov	r27, r26
    23cc:	a0 2d       	mov	r26, r0
    23ce:	0b 01       	movw	r0, r22
    23d0:	b9 01       	movw	r22, r18
    23d2:	90 01       	movw	r18, r0
    23d4:	0c 01       	movw	r0, r24
    23d6:	ca 01       	movw	r24, r20
    23d8:	a0 01       	movw	r20, r0
    23da:	11 24       	eor	r1, r1
    23dc:	ff 27       	eor	r31, r31
    23de:	59 1b       	sub	r21, r25
    23e0:	99 f0       	breq	.+38     	; 0x2408 <__addsf3x+0x60>
    23e2:	59 3f       	cpi	r21, 0xF9	; 249
    23e4:	50 f4       	brcc	.+20     	; 0x23fa <__addsf3x+0x52>
    23e6:	50 3e       	cpi	r21, 0xE0	; 224
    23e8:	68 f1       	brcs	.+90     	; 0x2444 <__addsf3x+0x9c>
    23ea:	1a 16       	cp	r1, r26
    23ec:	f0 40       	sbci	r31, 0x00	; 0
    23ee:	a2 2f       	mov	r26, r18
    23f0:	23 2f       	mov	r18, r19
    23f2:	34 2f       	mov	r19, r20
    23f4:	44 27       	eor	r20, r20
    23f6:	58 5f       	subi	r21, 0xF8	; 248
    23f8:	f3 cf       	rjmp	.-26     	; 0x23e0 <__addsf3x+0x38>
    23fa:	46 95       	lsr	r20
    23fc:	37 95       	ror	r19
    23fe:	27 95       	ror	r18
    2400:	a7 95       	ror	r26
    2402:	f0 40       	sbci	r31, 0x00	; 0
    2404:	53 95       	inc	r21
    2406:	c9 f7       	brne	.-14     	; 0x23fa <__addsf3x+0x52>
    2408:	7e f4       	brtc	.+30     	; 0x2428 <__addsf3x+0x80>
    240a:	1f 16       	cp	r1, r31
    240c:	ba 0b       	sbc	r27, r26
    240e:	62 0b       	sbc	r22, r18
    2410:	73 0b       	sbc	r23, r19
    2412:	84 0b       	sbc	r24, r20
    2414:	ba f0       	brmi	.+46     	; 0x2444 <__addsf3x+0x9c>
    2416:	91 50       	subi	r25, 0x01	; 1
    2418:	a1 f0       	breq	.+40     	; 0x2442 <__addsf3x+0x9a>
    241a:	ff 0f       	add	r31, r31
    241c:	bb 1f       	adc	r27, r27
    241e:	66 1f       	adc	r22, r22
    2420:	77 1f       	adc	r23, r23
    2422:	88 1f       	adc	r24, r24
    2424:	c2 f7       	brpl	.-16     	; 0x2416 <__addsf3x+0x6e>
    2426:	0e c0       	rjmp	.+28     	; 0x2444 <__addsf3x+0x9c>
    2428:	ba 0f       	add	r27, r26
    242a:	62 1f       	adc	r22, r18
    242c:	73 1f       	adc	r23, r19
    242e:	84 1f       	adc	r24, r20
    2430:	48 f4       	brcc	.+18     	; 0x2444 <__addsf3x+0x9c>
    2432:	87 95       	ror	r24
    2434:	77 95       	ror	r23
    2436:	67 95       	ror	r22
    2438:	b7 95       	ror	r27
    243a:	f7 95       	ror	r31
    243c:	9e 3f       	cpi	r25, 0xFE	; 254
    243e:	08 f0       	brcs	.+2      	; 0x2442 <__addsf3x+0x9a>
    2440:	b0 cf       	rjmp	.-160    	; 0x23a2 <__addsf3+0x28>
    2442:	93 95       	inc	r25
    2444:	88 0f       	add	r24, r24
    2446:	08 f0       	brcs	.+2      	; 0x244a <__addsf3x+0xa2>
    2448:	99 27       	eor	r25, r25
    244a:	ee 0f       	add	r30, r30
    244c:	97 95       	ror	r25
    244e:	87 95       	ror	r24
    2450:	08 95       	ret

00002452 <__fixsfsi>:
    2452:	0e 94 5e 02 	call	0x4bc	; 0x4bc <__fixunssfsi>
    2456:	68 94       	set
    2458:	b1 11       	cpse	r27, r1
    245a:	0c 94 fc 02 	jmp	0x5f8	; 0x5f8 <__fp_szero>
    245e:	08 95       	ret

00002460 <__floatunsisf>:
    2460:	e8 94       	clt
    2462:	09 c0       	rjmp	.+18     	; 0x2476 <__floatsisf+0x12>

00002464 <__floatsisf>:
    2464:	97 fb       	bst	r25, 7
    2466:	3e f4       	brtc	.+14     	; 0x2476 <__floatsisf+0x12>
    2468:	90 95       	com	r25
    246a:	80 95       	com	r24
    246c:	70 95       	com	r23
    246e:	61 95       	neg	r22
    2470:	7f 4f       	sbci	r23, 0xFF	; 255
    2472:	8f 4f       	sbci	r24, 0xFF	; 255
    2474:	9f 4f       	sbci	r25, 0xFF	; 255
    2476:	99 23       	and	r25, r25
    2478:	a9 f0       	breq	.+42     	; 0x24a4 <__floatsisf+0x40>
    247a:	f9 2f       	mov	r31, r25
    247c:	96 e9       	ldi	r25, 0x96	; 150
    247e:	bb 27       	eor	r27, r27
    2480:	93 95       	inc	r25
    2482:	f6 95       	lsr	r31
    2484:	87 95       	ror	r24
    2486:	77 95       	ror	r23
    2488:	67 95       	ror	r22
    248a:	b7 95       	ror	r27
    248c:	f1 11       	cpse	r31, r1
    248e:	f8 cf       	rjmp	.-16     	; 0x2480 <__floatsisf+0x1c>
    2490:	fa f4       	brpl	.+62     	; 0x24d0 <__floatsisf+0x6c>
    2492:	bb 0f       	add	r27, r27
    2494:	11 f4       	brne	.+4      	; 0x249a <__floatsisf+0x36>
    2496:	60 ff       	sbrs	r22, 0
    2498:	1b c0       	rjmp	.+54     	; 0x24d0 <__floatsisf+0x6c>
    249a:	6f 5f       	subi	r22, 0xFF	; 255
    249c:	7f 4f       	sbci	r23, 0xFF	; 255
    249e:	8f 4f       	sbci	r24, 0xFF	; 255
    24a0:	9f 4f       	sbci	r25, 0xFF	; 255
    24a2:	16 c0       	rjmp	.+44     	; 0x24d0 <__floatsisf+0x6c>
    24a4:	88 23       	and	r24, r24
    24a6:	11 f0       	breq	.+4      	; 0x24ac <__floatsisf+0x48>
    24a8:	96 e9       	ldi	r25, 0x96	; 150
    24aa:	11 c0       	rjmp	.+34     	; 0x24ce <__floatsisf+0x6a>
    24ac:	77 23       	and	r23, r23
    24ae:	21 f0       	breq	.+8      	; 0x24b8 <__floatsisf+0x54>
    24b0:	9e e8       	ldi	r25, 0x8E	; 142
    24b2:	87 2f       	mov	r24, r23
    24b4:	76 2f       	mov	r23, r22
    24b6:	05 c0       	rjmp	.+10     	; 0x24c2 <__floatsisf+0x5e>
    24b8:	66 23       	and	r22, r22
    24ba:	71 f0       	breq	.+28     	; 0x24d8 <__floatsisf+0x74>
    24bc:	96 e8       	ldi	r25, 0x86	; 134
    24be:	86 2f       	mov	r24, r22
    24c0:	70 e0       	ldi	r23, 0x00	; 0
    24c2:	60 e0       	ldi	r22, 0x00	; 0
    24c4:	2a f0       	brmi	.+10     	; 0x24d0 <__floatsisf+0x6c>
    24c6:	9a 95       	dec	r25
    24c8:	66 0f       	add	r22, r22
    24ca:	77 1f       	adc	r23, r23
    24cc:	88 1f       	adc	r24, r24
    24ce:	da f7       	brpl	.-10     	; 0x24c6 <__floatsisf+0x62>
    24d0:	88 0f       	add	r24, r24
    24d2:	96 95       	lsr	r25
    24d4:	87 95       	ror	r24
    24d6:	97 f9       	bld	r25, 7
    24d8:	08 95       	ret

000024da <dtostrf>:
    24da:	ef 92       	push	r14
    24dc:	0f 93       	push	r16
    24de:	1f 93       	push	r17
    24e0:	cf 93       	push	r28
    24e2:	df 93       	push	r29
    24e4:	e8 01       	movw	r28, r16
    24e6:	47 fd       	sbrc	r20, 7
    24e8:	02 c0       	rjmp	.+4      	; 0x24ee <dtostrf+0x14>
    24ea:	34 e0       	ldi	r19, 0x04	; 4
    24ec:	01 c0       	rjmp	.+2      	; 0x24f0 <dtostrf+0x16>
    24ee:	34 e1       	ldi	r19, 0x14	; 20
    24f0:	04 2e       	mov	r0, r20
    24f2:	00 0c       	add	r0, r0
    24f4:	55 0b       	sbc	r21, r21
    24f6:	57 ff       	sbrs	r21, 7
    24f8:	03 c0       	rjmp	.+6      	; 0x2500 <dtostrf+0x26>
    24fa:	51 95       	neg	r21
    24fc:	41 95       	neg	r20
    24fe:	51 09       	sbc	r21, r1
    2500:	e3 2e       	mov	r14, r19
    2502:	02 2f       	mov	r16, r18
    2504:	24 2f       	mov	r18, r20
    2506:	ae 01       	movw	r20, r28
    2508:	0e 94 8d 12 	call	0x251a	; 0x251a <dtoa_prf>
    250c:	ce 01       	movw	r24, r28
    250e:	df 91       	pop	r29
    2510:	cf 91       	pop	r28
    2512:	1f 91       	pop	r17
    2514:	0f 91       	pop	r16
    2516:	ef 90       	pop	r14
    2518:	08 95       	ret

0000251a <dtoa_prf>:
    251a:	a9 e0       	ldi	r26, 0x09	; 9
    251c:	b0 e0       	ldi	r27, 0x00	; 0
    251e:	e3 e9       	ldi	r30, 0x93	; 147
    2520:	f2 e1       	ldi	r31, 0x12	; 18
    2522:	0c 94 c5 14 	jmp	0x298a	; 0x298a <__prologue_saves__+0xc>
    2526:	6a 01       	movw	r12, r20
    2528:	12 2f       	mov	r17, r18
    252a:	b0 2e       	mov	r11, r16
    252c:	2b e3       	ldi	r18, 0x3B	; 59
    252e:	20 17       	cp	r18, r16
    2530:	20 f0       	brcs	.+8      	; 0x253a <dtoa_prf+0x20>
    2532:	ff 24       	eor	r15, r15
    2534:	f3 94       	inc	r15
    2536:	f0 0e       	add	r15, r16
    2538:	02 c0       	rjmp	.+4      	; 0x253e <dtoa_prf+0x24>
    253a:	2c e3       	ldi	r18, 0x3C	; 60
    253c:	f2 2e       	mov	r15, r18
    253e:	0f 2d       	mov	r16, r15
    2540:	27 e0       	ldi	r18, 0x07	; 7
    2542:	ae 01       	movw	r20, r28
    2544:	4f 5f       	subi	r20, 0xFF	; 255
    2546:	5f 4f       	sbci	r21, 0xFF	; 255
    2548:	0e 94 e7 13 	call	0x27ce	; 0x27ce <__ftoa_engine>
    254c:	bc 01       	movw	r22, r24
    254e:	49 81       	ldd	r20, Y+1	; 0x01
    2550:	84 2f       	mov	r24, r20
    2552:	89 70       	andi	r24, 0x09	; 9
    2554:	81 30       	cpi	r24, 0x01	; 1
    2556:	31 f0       	breq	.+12     	; 0x2564 <dtoa_prf+0x4a>
    2558:	e1 fc       	sbrc	r14, 1
    255a:	06 c0       	rjmp	.+12     	; 0x2568 <dtoa_prf+0x4e>
    255c:	e0 fe       	sbrs	r14, 0
    255e:	06 c0       	rjmp	.+12     	; 0x256c <dtoa_prf+0x52>
    2560:	90 e2       	ldi	r25, 0x20	; 32
    2562:	05 c0       	rjmp	.+10     	; 0x256e <dtoa_prf+0x54>
    2564:	9d e2       	ldi	r25, 0x2D	; 45
    2566:	03 c0       	rjmp	.+6      	; 0x256e <dtoa_prf+0x54>
    2568:	9b e2       	ldi	r25, 0x2B	; 43
    256a:	01 c0       	rjmp	.+2      	; 0x256e <dtoa_prf+0x54>
    256c:	90 e0       	ldi	r25, 0x00	; 0
    256e:	5e 2d       	mov	r21, r14
    2570:	50 71       	andi	r21, 0x10	; 16
    2572:	43 ff       	sbrs	r20, 3
    2574:	3c c0       	rjmp	.+120    	; 0x25ee <dtoa_prf+0xd4>
    2576:	91 11       	cpse	r25, r1
    2578:	02 c0       	rjmp	.+4      	; 0x257e <dtoa_prf+0x64>
    257a:	83 e0       	ldi	r24, 0x03	; 3
    257c:	01 c0       	rjmp	.+2      	; 0x2580 <dtoa_prf+0x66>
    257e:	84 e0       	ldi	r24, 0x04	; 4
    2580:	81 17       	cp	r24, r17
    2582:	18 f4       	brcc	.+6      	; 0x258a <dtoa_prf+0x70>
    2584:	21 2f       	mov	r18, r17
    2586:	28 1b       	sub	r18, r24
    2588:	01 c0       	rjmp	.+2      	; 0x258c <dtoa_prf+0x72>
    258a:	20 e0       	ldi	r18, 0x00	; 0
    258c:	51 11       	cpse	r21, r1
    258e:	0b c0       	rjmp	.+22     	; 0x25a6 <dtoa_prf+0x8c>
    2590:	f6 01       	movw	r30, r12
    2592:	82 2f       	mov	r24, r18
    2594:	30 e2       	ldi	r19, 0x20	; 32
    2596:	88 23       	and	r24, r24
    2598:	19 f0       	breq	.+6      	; 0x25a0 <dtoa_prf+0x86>
    259a:	31 93       	st	Z+, r19
    259c:	81 50       	subi	r24, 0x01	; 1
    259e:	fb cf       	rjmp	.-10     	; 0x2596 <dtoa_prf+0x7c>
    25a0:	c2 0e       	add	r12, r18
    25a2:	d1 1c       	adc	r13, r1
    25a4:	20 e0       	ldi	r18, 0x00	; 0
    25a6:	99 23       	and	r25, r25
    25a8:	29 f0       	breq	.+10     	; 0x25b4 <dtoa_prf+0x9a>
    25aa:	d6 01       	movw	r26, r12
    25ac:	9c 93       	st	X, r25
    25ae:	f6 01       	movw	r30, r12
    25b0:	31 96       	adiw	r30, 0x01	; 1
    25b2:	6f 01       	movw	r12, r30
    25b4:	c6 01       	movw	r24, r12
    25b6:	03 96       	adiw	r24, 0x03	; 3
    25b8:	e2 fe       	sbrs	r14, 2
    25ba:	0a c0       	rjmp	.+20     	; 0x25d0 <dtoa_prf+0xb6>
    25bc:	3e e4       	ldi	r19, 0x4E	; 78
    25be:	d6 01       	movw	r26, r12
    25c0:	3c 93       	st	X, r19
    25c2:	41 e4       	ldi	r20, 0x41	; 65
    25c4:	11 96       	adiw	r26, 0x01	; 1
    25c6:	4c 93       	st	X, r20
    25c8:	11 97       	sbiw	r26, 0x01	; 1
    25ca:	12 96       	adiw	r26, 0x02	; 2
    25cc:	3c 93       	st	X, r19
    25ce:	06 c0       	rjmp	.+12     	; 0x25dc <dtoa_prf+0xc2>
    25d0:	3e e6       	ldi	r19, 0x6E	; 110
    25d2:	f6 01       	movw	r30, r12
    25d4:	30 83       	st	Z, r19
    25d6:	41 e6       	ldi	r20, 0x61	; 97
    25d8:	41 83       	std	Z+1, r20	; 0x01
    25da:	32 83       	std	Z+2, r19	; 0x02
    25dc:	fc 01       	movw	r30, r24
    25de:	32 2f       	mov	r19, r18
    25e0:	40 e2       	ldi	r20, 0x20	; 32
    25e2:	33 23       	and	r19, r19
    25e4:	09 f4       	brne	.+2      	; 0x25e8 <dtoa_prf+0xce>
    25e6:	42 c0       	rjmp	.+132    	; 0x266c <dtoa_prf+0x152>
    25e8:	41 93       	st	Z+, r20
    25ea:	31 50       	subi	r19, 0x01	; 1
    25ec:	fa cf       	rjmp	.-12     	; 0x25e2 <dtoa_prf+0xc8>
    25ee:	42 ff       	sbrs	r20, 2
    25f0:	44 c0       	rjmp	.+136    	; 0x267a <dtoa_prf+0x160>
    25f2:	91 11       	cpse	r25, r1
    25f4:	02 c0       	rjmp	.+4      	; 0x25fa <dtoa_prf+0xe0>
    25f6:	83 e0       	ldi	r24, 0x03	; 3
    25f8:	01 c0       	rjmp	.+2      	; 0x25fc <dtoa_prf+0xe2>
    25fa:	84 e0       	ldi	r24, 0x04	; 4
    25fc:	81 17       	cp	r24, r17
    25fe:	18 f4       	brcc	.+6      	; 0x2606 <dtoa_prf+0xec>
    2600:	21 2f       	mov	r18, r17
    2602:	28 1b       	sub	r18, r24
    2604:	01 c0       	rjmp	.+2      	; 0x2608 <dtoa_prf+0xee>
    2606:	20 e0       	ldi	r18, 0x00	; 0
    2608:	51 11       	cpse	r21, r1
    260a:	0b c0       	rjmp	.+22     	; 0x2622 <dtoa_prf+0x108>
    260c:	f6 01       	movw	r30, r12
    260e:	82 2f       	mov	r24, r18
    2610:	30 e2       	ldi	r19, 0x20	; 32
    2612:	88 23       	and	r24, r24
    2614:	19 f0       	breq	.+6      	; 0x261c <dtoa_prf+0x102>
    2616:	31 93       	st	Z+, r19
    2618:	81 50       	subi	r24, 0x01	; 1
    261a:	fb cf       	rjmp	.-10     	; 0x2612 <dtoa_prf+0xf8>
    261c:	c2 0e       	add	r12, r18
    261e:	d1 1c       	adc	r13, r1
    2620:	20 e0       	ldi	r18, 0x00	; 0
    2622:	99 23       	and	r25, r25
    2624:	29 f0       	breq	.+10     	; 0x2630 <dtoa_prf+0x116>
    2626:	d6 01       	movw	r26, r12
    2628:	9c 93       	st	X, r25
    262a:	f6 01       	movw	r30, r12
    262c:	31 96       	adiw	r30, 0x01	; 1
    262e:	6f 01       	movw	r12, r30
    2630:	c6 01       	movw	r24, r12
    2632:	03 96       	adiw	r24, 0x03	; 3
    2634:	e2 fe       	sbrs	r14, 2
    2636:	0b c0       	rjmp	.+22     	; 0x264e <dtoa_prf+0x134>
    2638:	39 e4       	ldi	r19, 0x49	; 73
    263a:	d6 01       	movw	r26, r12
    263c:	3c 93       	st	X, r19
    263e:	3e e4       	ldi	r19, 0x4E	; 78
    2640:	11 96       	adiw	r26, 0x01	; 1
    2642:	3c 93       	st	X, r19
    2644:	11 97       	sbiw	r26, 0x01	; 1
    2646:	36 e4       	ldi	r19, 0x46	; 70
    2648:	12 96       	adiw	r26, 0x02	; 2
    264a:	3c 93       	st	X, r19
    264c:	07 c0       	rjmp	.+14     	; 0x265c <dtoa_prf+0x142>
    264e:	39 e6       	ldi	r19, 0x69	; 105
    2650:	f6 01       	movw	r30, r12
    2652:	30 83       	st	Z, r19
    2654:	3e e6       	ldi	r19, 0x6E	; 110
    2656:	31 83       	std	Z+1, r19	; 0x01
    2658:	36 e6       	ldi	r19, 0x66	; 102
    265a:	32 83       	std	Z+2, r19	; 0x02
    265c:	fc 01       	movw	r30, r24
    265e:	32 2f       	mov	r19, r18
    2660:	40 e2       	ldi	r20, 0x20	; 32
    2662:	33 23       	and	r19, r19
    2664:	19 f0       	breq	.+6      	; 0x266c <dtoa_prf+0x152>
    2666:	41 93       	st	Z+, r20
    2668:	31 50       	subi	r19, 0x01	; 1
    266a:	fb cf       	rjmp	.-10     	; 0x2662 <dtoa_prf+0x148>
    266c:	fc 01       	movw	r30, r24
    266e:	e2 0f       	add	r30, r18
    2670:	f1 1d       	adc	r31, r1
    2672:	10 82       	st	Z, r1
    2674:	8e ef       	ldi	r24, 0xFE	; 254
    2676:	9f ef       	ldi	r25, 0xFF	; 255
    2678:	a6 c0       	rjmp	.+332    	; 0x27c6 <dtoa_prf+0x2ac>
    267a:	21 e0       	ldi	r18, 0x01	; 1
    267c:	30 e0       	ldi	r19, 0x00	; 0
    267e:	91 11       	cpse	r25, r1
    2680:	02 c0       	rjmp	.+4      	; 0x2686 <dtoa_prf+0x16c>
    2682:	20 e0       	ldi	r18, 0x00	; 0
    2684:	30 e0       	ldi	r19, 0x00	; 0
    2686:	16 16       	cp	r1, r22
    2688:	17 06       	cpc	r1, r23
    268a:	1c f4       	brge	.+6      	; 0x2692 <dtoa_prf+0x178>
    268c:	fb 01       	movw	r30, r22
    268e:	31 96       	adiw	r30, 0x01	; 1
    2690:	02 c0       	rjmp	.+4      	; 0x2696 <dtoa_prf+0x17c>
    2692:	e1 e0       	ldi	r30, 0x01	; 1
    2694:	f0 e0       	ldi	r31, 0x00	; 0
    2696:	2e 0f       	add	r18, r30
    2698:	3f 1f       	adc	r19, r31
    269a:	bb 20       	and	r11, r11
    269c:	21 f0       	breq	.+8      	; 0x26a6 <dtoa_prf+0x18c>
    269e:	eb 2d       	mov	r30, r11
    26a0:	f0 e0       	ldi	r31, 0x00	; 0
    26a2:	31 96       	adiw	r30, 0x01	; 1
    26a4:	02 c0       	rjmp	.+4      	; 0x26aa <dtoa_prf+0x190>
    26a6:	e0 e0       	ldi	r30, 0x00	; 0
    26a8:	f0 e0       	ldi	r31, 0x00	; 0
    26aa:	2e 0f       	add	r18, r30
    26ac:	3f 1f       	adc	r19, r31
    26ae:	e1 2f       	mov	r30, r17
    26b0:	f0 e0       	ldi	r31, 0x00	; 0
    26b2:	2e 17       	cp	r18, r30
    26b4:	3f 07       	cpc	r19, r31
    26b6:	1c f4       	brge	.+6      	; 0x26be <dtoa_prf+0x1a4>
    26b8:	12 1b       	sub	r17, r18
    26ba:	21 2f       	mov	r18, r17
    26bc:	01 c0       	rjmp	.+2      	; 0x26c0 <dtoa_prf+0x1a6>
    26be:	20 e0       	ldi	r18, 0x00	; 0
    26c0:	8e 2d       	mov	r24, r14
    26c2:	88 71       	andi	r24, 0x18	; 24
    26c4:	59 f4       	brne	.+22     	; 0x26dc <dtoa_prf+0x1c2>
    26c6:	f6 01       	movw	r30, r12
    26c8:	82 2f       	mov	r24, r18
    26ca:	30 e2       	ldi	r19, 0x20	; 32
    26cc:	88 23       	and	r24, r24
    26ce:	19 f0       	breq	.+6      	; 0x26d6 <dtoa_prf+0x1bc>
    26d0:	31 93       	st	Z+, r19
    26d2:	81 50       	subi	r24, 0x01	; 1
    26d4:	fb cf       	rjmp	.-10     	; 0x26cc <dtoa_prf+0x1b2>
    26d6:	c2 0e       	add	r12, r18
    26d8:	d1 1c       	adc	r13, r1
    26da:	20 e0       	ldi	r18, 0x00	; 0
    26dc:	99 23       	and	r25, r25
    26de:	29 f0       	breq	.+10     	; 0x26ea <dtoa_prf+0x1d0>
    26e0:	d6 01       	movw	r26, r12
    26e2:	9c 93       	st	X, r25
    26e4:	f6 01       	movw	r30, r12
    26e6:	31 96       	adiw	r30, 0x01	; 1
    26e8:	6f 01       	movw	r12, r30
    26ea:	51 11       	cpse	r21, r1
    26ec:	0b c0       	rjmp	.+22     	; 0x2704 <dtoa_prf+0x1ea>
    26ee:	f6 01       	movw	r30, r12
    26f0:	82 2f       	mov	r24, r18
    26f2:	90 e3       	ldi	r25, 0x30	; 48
    26f4:	88 23       	and	r24, r24
    26f6:	19 f0       	breq	.+6      	; 0x26fe <dtoa_prf+0x1e4>
    26f8:	91 93       	st	Z+, r25
    26fa:	81 50       	subi	r24, 0x01	; 1
    26fc:	fb cf       	rjmp	.-10     	; 0x26f4 <dtoa_prf+0x1da>
    26fe:	c2 0e       	add	r12, r18
    2700:	d1 1c       	adc	r13, r1
    2702:	20 e0       	ldi	r18, 0x00	; 0
    2704:	0f 2d       	mov	r16, r15
    2706:	06 0f       	add	r16, r22
    2708:	9a 81       	ldd	r25, Y+2	; 0x02
    270a:	34 2f       	mov	r19, r20
    270c:	30 71       	andi	r19, 0x10	; 16
    270e:	44 ff       	sbrs	r20, 4
    2710:	03 c0       	rjmp	.+6      	; 0x2718 <dtoa_prf+0x1fe>
    2712:	91 33       	cpi	r25, 0x31	; 49
    2714:	09 f4       	brne	.+2      	; 0x2718 <dtoa_prf+0x1fe>
    2716:	01 50       	subi	r16, 0x01	; 1
    2718:	10 16       	cp	r1, r16
    271a:	24 f4       	brge	.+8      	; 0x2724 <dtoa_prf+0x20a>
    271c:	09 30       	cpi	r16, 0x09	; 9
    271e:	18 f0       	brcs	.+6      	; 0x2726 <dtoa_prf+0x20c>
    2720:	08 e0       	ldi	r16, 0x08	; 8
    2722:	01 c0       	rjmp	.+2      	; 0x2726 <dtoa_prf+0x20c>
    2724:	01 e0       	ldi	r16, 0x01	; 1
    2726:	ab 01       	movw	r20, r22
    2728:	77 ff       	sbrs	r23, 7
    272a:	02 c0       	rjmp	.+4      	; 0x2730 <dtoa_prf+0x216>
    272c:	40 e0       	ldi	r20, 0x00	; 0
    272e:	50 e0       	ldi	r21, 0x00	; 0
    2730:	fb 01       	movw	r30, r22
    2732:	e4 1b       	sub	r30, r20
    2734:	f5 0b       	sbc	r31, r21
    2736:	a1 e0       	ldi	r26, 0x01	; 1
    2738:	b0 e0       	ldi	r27, 0x00	; 0
    273a:	ac 0f       	add	r26, r28
    273c:	bd 1f       	adc	r27, r29
    273e:	ea 0f       	add	r30, r26
    2740:	fb 1f       	adc	r31, r27
    2742:	8e e2       	ldi	r24, 0x2E	; 46
    2744:	a8 2e       	mov	r10, r24
    2746:	4b 01       	movw	r8, r22
    2748:	80 1a       	sub	r8, r16
    274a:	91 08       	sbc	r9, r1
    274c:	0b 2d       	mov	r16, r11
    274e:	10 e0       	ldi	r17, 0x00	; 0
    2750:	11 95       	neg	r17
    2752:	01 95       	neg	r16
    2754:	11 09       	sbc	r17, r1
    2756:	4f 3f       	cpi	r20, 0xFF	; 255
    2758:	bf ef       	ldi	r27, 0xFF	; 255
    275a:	5b 07       	cpc	r21, r27
    275c:	21 f4       	brne	.+8      	; 0x2766 <dtoa_prf+0x24c>
    275e:	d6 01       	movw	r26, r12
    2760:	ac 92       	st	X, r10
    2762:	11 96       	adiw	r26, 0x01	; 1
    2764:	6d 01       	movw	r12, r26
    2766:	64 17       	cp	r22, r20
    2768:	75 07       	cpc	r23, r21
    276a:	2c f0       	brlt	.+10     	; 0x2776 <dtoa_prf+0x25c>
    276c:	84 16       	cp	r8, r20
    276e:	95 06       	cpc	r9, r21
    2770:	14 f4       	brge	.+4      	; 0x2776 <dtoa_prf+0x25c>
    2772:	81 81       	ldd	r24, Z+1	; 0x01
    2774:	01 c0       	rjmp	.+2      	; 0x2778 <dtoa_prf+0x25e>
    2776:	80 e3       	ldi	r24, 0x30	; 48
    2778:	41 50       	subi	r20, 0x01	; 1
    277a:	51 09       	sbc	r21, r1
    277c:	31 96       	adiw	r30, 0x01	; 1
    277e:	d6 01       	movw	r26, r12
    2780:	11 96       	adiw	r26, 0x01	; 1
    2782:	7d 01       	movw	r14, r26
    2784:	40 17       	cp	r20, r16
    2786:	51 07       	cpc	r21, r17
    2788:	24 f0       	brlt	.+8      	; 0x2792 <dtoa_prf+0x278>
    278a:	d6 01       	movw	r26, r12
    278c:	8c 93       	st	X, r24
    278e:	67 01       	movw	r12, r14
    2790:	e2 cf       	rjmp	.-60     	; 0x2756 <dtoa_prf+0x23c>
    2792:	64 17       	cp	r22, r20
    2794:	75 07       	cpc	r23, r21
    2796:	39 f4       	brne	.+14     	; 0x27a6 <dtoa_prf+0x28c>
    2798:	96 33       	cpi	r25, 0x36	; 54
    279a:	20 f4       	brcc	.+8      	; 0x27a4 <dtoa_prf+0x28a>
    279c:	95 33       	cpi	r25, 0x35	; 53
    279e:	19 f4       	brne	.+6      	; 0x27a6 <dtoa_prf+0x28c>
    27a0:	31 11       	cpse	r19, r1
    27a2:	01 c0       	rjmp	.+2      	; 0x27a6 <dtoa_prf+0x28c>
    27a4:	81 e3       	ldi	r24, 0x31	; 49
    27a6:	f6 01       	movw	r30, r12
    27a8:	80 83       	st	Z, r24
    27aa:	f7 01       	movw	r30, r14
    27ac:	82 2f       	mov	r24, r18
    27ae:	90 e2       	ldi	r25, 0x20	; 32
    27b0:	88 23       	and	r24, r24
    27b2:	19 f0       	breq	.+6      	; 0x27ba <dtoa_prf+0x2a0>
    27b4:	91 93       	st	Z+, r25
    27b6:	81 50       	subi	r24, 0x01	; 1
    27b8:	fb cf       	rjmp	.-10     	; 0x27b0 <dtoa_prf+0x296>
    27ba:	f7 01       	movw	r30, r14
    27bc:	e2 0f       	add	r30, r18
    27be:	f1 1d       	adc	r31, r1
    27c0:	10 82       	st	Z, r1
    27c2:	80 e0       	ldi	r24, 0x00	; 0
    27c4:	90 e0       	ldi	r25, 0x00	; 0
    27c6:	29 96       	adiw	r28, 0x09	; 9
    27c8:	ec e0       	ldi	r30, 0x0C	; 12
    27ca:	0c 94 e1 14 	jmp	0x29c2	; 0x29c2 <__epilogue_restores__+0xc>

000027ce <__ftoa_engine>:
    27ce:	28 30       	cpi	r18, 0x08	; 8
    27d0:	08 f0       	brcs	.+2      	; 0x27d4 <__ftoa_engine+0x6>
    27d2:	27 e0       	ldi	r18, 0x07	; 7
    27d4:	33 27       	eor	r19, r19
    27d6:	da 01       	movw	r26, r20
    27d8:	99 0f       	add	r25, r25
    27da:	31 1d       	adc	r19, r1
    27dc:	87 fd       	sbrc	r24, 7
    27de:	91 60       	ori	r25, 0x01	; 1
    27e0:	00 96       	adiw	r24, 0x00	; 0
    27e2:	61 05       	cpc	r22, r1
    27e4:	71 05       	cpc	r23, r1
    27e6:	39 f4       	brne	.+14     	; 0x27f6 <__ftoa_engine+0x28>
    27e8:	32 60       	ori	r19, 0x02	; 2
    27ea:	2e 5f       	subi	r18, 0xFE	; 254
    27ec:	3d 93       	st	X+, r19
    27ee:	30 e3       	ldi	r19, 0x30	; 48
    27f0:	2a 95       	dec	r18
    27f2:	e1 f7       	brne	.-8      	; 0x27ec <__ftoa_engine+0x1e>
    27f4:	08 95       	ret
    27f6:	9f 3f       	cpi	r25, 0xFF	; 255
    27f8:	30 f0       	brcs	.+12     	; 0x2806 <__ftoa_engine+0x38>
    27fa:	80 38       	cpi	r24, 0x80	; 128
    27fc:	71 05       	cpc	r23, r1
    27fe:	61 05       	cpc	r22, r1
    2800:	09 f0       	breq	.+2      	; 0x2804 <__ftoa_engine+0x36>
    2802:	3c 5f       	subi	r19, 0xFC	; 252
    2804:	3c 5f       	subi	r19, 0xFC	; 252
    2806:	3d 93       	st	X+, r19
    2808:	91 30       	cpi	r25, 0x01	; 1
    280a:	08 f0       	brcs	.+2      	; 0x280e <__ftoa_engine+0x40>
    280c:	80 68       	ori	r24, 0x80	; 128
    280e:	91 1d       	adc	r25, r1
    2810:	df 93       	push	r29
    2812:	cf 93       	push	r28
    2814:	1f 93       	push	r17
    2816:	0f 93       	push	r16
    2818:	ff 92       	push	r15
    281a:	ef 92       	push	r14
    281c:	19 2f       	mov	r17, r25
    281e:	98 7f       	andi	r25, 0xF8	; 248
    2820:	96 95       	lsr	r25
    2822:	e9 2f       	mov	r30, r25
    2824:	96 95       	lsr	r25
    2826:	96 95       	lsr	r25
    2828:	e9 0f       	add	r30, r25
    282a:	ff 27       	eor	r31, r31
    282c:	ee 53       	subi	r30, 0x3E	; 62
    282e:	ff 4f       	sbci	r31, 0xFF	; 255
    2830:	99 27       	eor	r25, r25
    2832:	33 27       	eor	r19, r19
    2834:	ee 24       	eor	r14, r14
    2836:	ff 24       	eor	r15, r15
    2838:	a7 01       	movw	r20, r14
    283a:	e7 01       	movw	r28, r14
    283c:	05 90       	lpm	r0, Z+
    283e:	08 94       	sec
    2840:	07 94       	ror	r0
    2842:	28 f4       	brcc	.+10     	; 0x284e <__ftoa_engine+0x80>
    2844:	36 0f       	add	r19, r22
    2846:	e7 1e       	adc	r14, r23
    2848:	f8 1e       	adc	r15, r24
    284a:	49 1f       	adc	r20, r25
    284c:	51 1d       	adc	r21, r1
    284e:	66 0f       	add	r22, r22
    2850:	77 1f       	adc	r23, r23
    2852:	88 1f       	adc	r24, r24
    2854:	99 1f       	adc	r25, r25
    2856:	06 94       	lsr	r0
    2858:	a1 f7       	brne	.-24     	; 0x2842 <__ftoa_engine+0x74>
    285a:	05 90       	lpm	r0, Z+
    285c:	07 94       	ror	r0
    285e:	28 f4       	brcc	.+10     	; 0x286a <__ftoa_engine+0x9c>
    2860:	e7 0e       	add	r14, r23
    2862:	f8 1e       	adc	r15, r24
    2864:	49 1f       	adc	r20, r25
    2866:	56 1f       	adc	r21, r22
    2868:	c1 1d       	adc	r28, r1
    286a:	77 0f       	add	r23, r23
    286c:	88 1f       	adc	r24, r24
    286e:	99 1f       	adc	r25, r25
    2870:	66 1f       	adc	r22, r22
    2872:	06 94       	lsr	r0
    2874:	a1 f7       	brne	.-24     	; 0x285e <__ftoa_engine+0x90>
    2876:	05 90       	lpm	r0, Z+
    2878:	07 94       	ror	r0
    287a:	28 f4       	brcc	.+10     	; 0x2886 <__ftoa_engine+0xb8>
    287c:	f8 0e       	add	r15, r24
    287e:	49 1f       	adc	r20, r25
    2880:	56 1f       	adc	r21, r22
    2882:	c7 1f       	adc	r28, r23
    2884:	d1 1d       	adc	r29, r1
    2886:	88 0f       	add	r24, r24
    2888:	99 1f       	adc	r25, r25
    288a:	66 1f       	adc	r22, r22
    288c:	77 1f       	adc	r23, r23
    288e:	06 94       	lsr	r0
    2890:	a1 f7       	brne	.-24     	; 0x287a <__ftoa_engine+0xac>
    2892:	05 90       	lpm	r0, Z+
    2894:	07 94       	ror	r0
    2896:	20 f4       	brcc	.+8      	; 0x28a0 <__ftoa_engine+0xd2>
    2898:	49 0f       	add	r20, r25
    289a:	56 1f       	adc	r21, r22
    289c:	c7 1f       	adc	r28, r23
    289e:	d8 1f       	adc	r29, r24
    28a0:	99 0f       	add	r25, r25
    28a2:	66 1f       	adc	r22, r22
    28a4:	77 1f       	adc	r23, r23
    28a6:	88 1f       	adc	r24, r24
    28a8:	06 94       	lsr	r0
    28aa:	a9 f7       	brne	.-22     	; 0x2896 <__ftoa_engine+0xc8>
    28ac:	84 91       	lpm	r24, Z
    28ae:	10 95       	com	r17
    28b0:	17 70       	andi	r17, 0x07	; 7
    28b2:	41 f0       	breq	.+16     	; 0x28c4 <__ftoa_engine+0xf6>
    28b4:	d6 95       	lsr	r29
    28b6:	c7 95       	ror	r28
    28b8:	57 95       	ror	r21
    28ba:	47 95       	ror	r20
    28bc:	f7 94       	ror	r15
    28be:	e7 94       	ror	r14
    28c0:	1a 95       	dec	r17
    28c2:	c1 f7       	brne	.-16     	; 0x28b4 <__ftoa_engine+0xe6>
    28c4:	e8 e6       	ldi	r30, 0x68	; 104
    28c6:	f0 e0       	ldi	r31, 0x00	; 0
    28c8:	68 94       	set
    28ca:	15 90       	lpm	r1, Z+
    28cc:	15 91       	lpm	r17, Z+
    28ce:	35 91       	lpm	r19, Z+
    28d0:	65 91       	lpm	r22, Z+
    28d2:	95 91       	lpm	r25, Z+
    28d4:	05 90       	lpm	r0, Z+
    28d6:	7f e2       	ldi	r23, 0x2F	; 47
    28d8:	73 95       	inc	r23
    28da:	e1 18       	sub	r14, r1
    28dc:	f1 0a       	sbc	r15, r17
    28de:	43 0b       	sbc	r20, r19
    28e0:	56 0b       	sbc	r21, r22
    28e2:	c9 0b       	sbc	r28, r25
    28e4:	d0 09       	sbc	r29, r0
    28e6:	c0 f7       	brcc	.-16     	; 0x28d8 <__ftoa_engine+0x10a>
    28e8:	e1 0c       	add	r14, r1
    28ea:	f1 1e       	adc	r15, r17
    28ec:	43 1f       	adc	r20, r19
    28ee:	56 1f       	adc	r21, r22
    28f0:	c9 1f       	adc	r28, r25
    28f2:	d0 1d       	adc	r29, r0
    28f4:	7e f4       	brtc	.+30     	; 0x2914 <__ftoa_engine+0x146>
    28f6:	70 33       	cpi	r23, 0x30	; 48
    28f8:	11 f4       	brne	.+4      	; 0x28fe <__ftoa_engine+0x130>
    28fa:	8a 95       	dec	r24
    28fc:	e6 cf       	rjmp	.-52     	; 0x28ca <__ftoa_engine+0xfc>
    28fe:	e8 94       	clt
    2900:	01 50       	subi	r16, 0x01	; 1
    2902:	30 f0       	brcs	.+12     	; 0x2910 <__ftoa_engine+0x142>
    2904:	08 0f       	add	r16, r24
    2906:	0a f4       	brpl	.+2      	; 0x290a <__ftoa_engine+0x13c>
    2908:	00 27       	eor	r16, r16
    290a:	02 17       	cp	r16, r18
    290c:	08 f4       	brcc	.+2      	; 0x2910 <__ftoa_engine+0x142>
    290e:	20 2f       	mov	r18, r16
    2910:	23 95       	inc	r18
    2912:	02 2f       	mov	r16, r18
    2914:	7a 33       	cpi	r23, 0x3A	; 58
    2916:	28 f0       	brcs	.+10     	; 0x2922 <__ftoa_engine+0x154>
    2918:	79 e3       	ldi	r23, 0x39	; 57
    291a:	7d 93       	st	X+, r23
    291c:	2a 95       	dec	r18
    291e:	e9 f7       	brne	.-6      	; 0x291a <__ftoa_engine+0x14c>
    2920:	10 c0       	rjmp	.+32     	; 0x2942 <__ftoa_engine+0x174>
    2922:	7d 93       	st	X+, r23
    2924:	2a 95       	dec	r18
    2926:	89 f6       	brne	.-94     	; 0x28ca <__ftoa_engine+0xfc>
    2928:	06 94       	lsr	r0
    292a:	97 95       	ror	r25
    292c:	67 95       	ror	r22
    292e:	37 95       	ror	r19
    2930:	17 95       	ror	r17
    2932:	17 94       	ror	r1
    2934:	e1 18       	sub	r14, r1
    2936:	f1 0a       	sbc	r15, r17
    2938:	43 0b       	sbc	r20, r19
    293a:	56 0b       	sbc	r21, r22
    293c:	c9 0b       	sbc	r28, r25
    293e:	d0 09       	sbc	r29, r0
    2940:	98 f0       	brcs	.+38     	; 0x2968 <__ftoa_engine+0x19a>
    2942:	23 95       	inc	r18
    2944:	7e 91       	ld	r23, -X
    2946:	73 95       	inc	r23
    2948:	7a 33       	cpi	r23, 0x3A	; 58
    294a:	08 f0       	brcs	.+2      	; 0x294e <__ftoa_engine+0x180>
    294c:	70 e3       	ldi	r23, 0x30	; 48
    294e:	7c 93       	st	X, r23
    2950:	20 13       	cpse	r18, r16
    2952:	b8 f7       	brcc	.-18     	; 0x2942 <__ftoa_engine+0x174>
    2954:	7e 91       	ld	r23, -X
    2956:	70 61       	ori	r23, 0x10	; 16
    2958:	7d 93       	st	X+, r23
    295a:	30 f0       	brcs	.+12     	; 0x2968 <__ftoa_engine+0x19a>
    295c:	83 95       	inc	r24
    295e:	71 e3       	ldi	r23, 0x31	; 49
    2960:	7d 93       	st	X+, r23
    2962:	70 e3       	ldi	r23, 0x30	; 48
    2964:	2a 95       	dec	r18
    2966:	e1 f7       	brne	.-8      	; 0x2960 <__ftoa_engine+0x192>
    2968:	11 24       	eor	r1, r1
    296a:	ef 90       	pop	r14
    296c:	ff 90       	pop	r15
    296e:	0f 91       	pop	r16
    2970:	1f 91       	pop	r17
    2972:	cf 91       	pop	r28
    2974:	df 91       	pop	r29
    2976:	99 27       	eor	r25, r25
    2978:	87 fd       	sbrc	r24, 7
    297a:	90 95       	com	r25
    297c:	08 95       	ret

0000297e <__prologue_saves__>:
    297e:	2f 92       	push	r2
    2980:	3f 92       	push	r3
    2982:	4f 92       	push	r4
    2984:	5f 92       	push	r5
    2986:	6f 92       	push	r6
    2988:	7f 92       	push	r7
    298a:	8f 92       	push	r8
    298c:	9f 92       	push	r9
    298e:	af 92       	push	r10
    2990:	bf 92       	push	r11
    2992:	cf 92       	push	r12
    2994:	df 92       	push	r13
    2996:	ef 92       	push	r14
    2998:	ff 92       	push	r15
    299a:	0f 93       	push	r16
    299c:	1f 93       	push	r17
    299e:	cf 93       	push	r28
    29a0:	df 93       	push	r29
    29a2:	cd b7       	in	r28, 0x3d	; 61
    29a4:	de b7       	in	r29, 0x3e	; 62
    29a6:	ca 1b       	sub	r28, r26
    29a8:	db 0b       	sbc	r29, r27
    29aa:	0f b6       	in	r0, 0x3f	; 63
    29ac:	f8 94       	cli
    29ae:	de bf       	out	0x3e, r29	; 62
    29b0:	0f be       	out	0x3f, r0	; 63
    29b2:	cd bf       	out	0x3d, r28	; 61
    29b4:	09 94       	ijmp

000029b6 <__epilogue_restores__>:
    29b6:	2a 88       	ldd	r2, Y+18	; 0x12
    29b8:	39 88       	ldd	r3, Y+17	; 0x11
    29ba:	48 88       	ldd	r4, Y+16	; 0x10
    29bc:	5f 84       	ldd	r5, Y+15	; 0x0f
    29be:	6e 84       	ldd	r6, Y+14	; 0x0e
    29c0:	7d 84       	ldd	r7, Y+13	; 0x0d
    29c2:	8c 84       	ldd	r8, Y+12	; 0x0c
    29c4:	9b 84       	ldd	r9, Y+11	; 0x0b
    29c6:	aa 84       	ldd	r10, Y+10	; 0x0a
    29c8:	b9 84       	ldd	r11, Y+9	; 0x09
    29ca:	c8 84       	ldd	r12, Y+8	; 0x08
    29cc:	df 80       	ldd	r13, Y+7	; 0x07
    29ce:	ee 80       	ldd	r14, Y+6	; 0x06
    29d0:	fd 80       	ldd	r15, Y+5	; 0x05
    29d2:	0c 81       	ldd	r16, Y+4	; 0x04
    29d4:	1b 81       	ldd	r17, Y+3	; 0x03
    29d6:	aa 81       	ldd	r26, Y+2	; 0x02
    29d8:	b9 81       	ldd	r27, Y+1	; 0x01
    29da:	ce 0f       	add	r28, r30
    29dc:	d1 1d       	adc	r29, r1
    29de:	0f b6       	in	r0, 0x3f	; 63
    29e0:	f8 94       	cli
    29e2:	de bf       	out	0x3e, r29	; 62
    29e4:	0f be       	out	0x3f, r0	; 63
    29e6:	cd bf       	out	0x3d, r28	; 61
    29e8:	ed 01       	movw	r28, r26
    29ea:	08 95       	ret

000029ec <_exit>:
    29ec:	f8 94       	cli

000029ee <__stop_program>:
    29ee:	ff cf       	rjmp	.-2      	; 0x29ee <__stop_program>
